	.file	"fm.c"
	.text
	.p2align 4,,15
	.globl	fm_set_sample_rate
	.type	fm_set_sample_rate, @function
fm_set_sample_rate:
.LFB27:
	.cfi_startproc
	movl	%edi, %eax
	movl	%edi, SAMPLERATE(%rip)
	movl	%edi, N(%rip)
	shrl	$31, %eax
	addl	%eax, %edi
	sarl	%edi
	movl	%edi, N_2(%rip)
	ret
	.cfi_endproc
.LFE27:
	.size	fm_set_sample_rate, .-fm_set_sample_rate
	.p2align 4,,15
	.globl	fmc_init
	.type	fmc_init, @function
fmc_init:
.LFB28:
	.cfi_startproc
	pushq	%r15
	.cfi_def_cfa_offset 16
	.cfi_offset 15, -16
	movsd	.LC0(%rip), %xmm2
	cvtsi2sd	SAMPLERATE(%rip), %xmm1
	movq	$-1, (%rdi)
	testl	%esi, %esi
	pushq	%r14
	.cfi_def_cfa_offset 24
	.cfi_offset 14, -24
	pushq	%r13
	.cfi_def_cfa_offset 32
	.cfi_offset 13, -32
	pushq	%r12
	.cfi_def_cfa_offset 40
	.cfi_offset 12, -40
	pushq	%rbp
	.cfi_def_cfa_offset 48
	.cfi_offset 6, -48
	pushq	%rbx
	.cfi_def_cfa_offset 56
	.cfi_offset 3, -56
	movsd	%xmm2, 41656(%rdi)
	movl	$0, 41636(%rdi)
	movsd	.LC1(%rip), %xmm2
	movl	%esi, 41632(%rdi)
	movl	%esi, -4(%rsp)
	movsd	%xmm1, 41648(%rdi)
	movq	$-1, 8(%rdi)
	movq	$-1, 16(%rdi)
	movq	$-1, 24(%rdi)
	movq	$-1, 32(%rdi)
	movq	$-1, 40(%rdi)
	movq	$-1, 48(%rdi)
	movq	$-1, 56(%rdi)
	movq	$-1, 64(%rdi)
	movq	$-1, 72(%rdi)
	movq	$-1, 80(%rdi)
	movq	$-1, 88(%rdi)
	movq	$-1, 96(%rdi)
	movq	$-1, 104(%rdi)
	movq	$-1, 112(%rdi)
	movq	$-1, 120(%rdi)
	movq	$-1, 128(%rdi)
	movq	$-1, 136(%rdi)
	movq	$-1, 144(%rdi)
	movq	$-1, 152(%rdi)
	movsd	%xmm2, 41640(%rdi)
	movsd	.LC3(%rip), %xmm2
	movq	$0, 41704(%rdi)
	movsd	%xmm2, 41712(%rdi)
	jle	.L4
	movsd	.LC4(%rip), %xmm2
	leaq	320(%rdi), %r9
	leaq	480(%rdi), %r8
	movsd	.LC5(%rip), %xmm0
	leaq	640(%rdi), %rsi
	divsd	%xmm1, %xmm2
	leaq	800(%rdi), %rcx
	leaq	41640(%rdi), %r11
	leaq	160(%rdi), %r15
	leaq	960(%rdi), %r10
	movq	%r9, %r14
	movq	%r8, %r13
	movq	%rsi, %r12
	movq	%rcx, %rbp
	movq	%rdi, %rax
	xorl	%ebx, %ebx
	divsd	%xmm1, %xmm0
	.p2align 4,,10
	.p2align 3
.L5:
	movq	%r11, 1440(%rax)
	movl	$0, 1424(%rax)
	movsd	%xmm1, 160(%rax)
	movq	$0, 1432(%rax)
	movq	$0, 1448(%rax)
	movq	%r15, %rdx
	movq	$0, 1408(%rax)
	subq	%rdi, %rdx
	addl	$1, %ebx
	movq	%r11, 304(%rax)
	movq	$0, 240(%rax)
	addq	$1296, %r15
	movq	$0, 288(%rax)
	movl	$0, 176(%rax)
	addq	$1296, %rax
	movsd	.LC1(%rip), %xmm4
	movsd	.LC6(%rip), %xmm7
	movsd	.LC7(%rip), %xmm5
	movsd	.LC8(%rip), %xmm6
	movsd	%xmm4, 120(%rax)
	movsd	%xmm4, -176(%rax)
	movsd	%xmm4, -168(%rax)
	movsd	%xmm4, -160(%rax)
	movsd	%xmm4, -152(%rax)
	movsd	%xmm4, -144(%rax)
	movsd	%xmm4, -136(%rax)
	movsd	%xmm7, -128(%rax)
	movsd	%xmm4, -120(%rax)
	movsd	%xmm5, -112(%rax)
	movsd	%xmm6, -104(%rax)
	movsd	.LC0(%rip), %xmm5
	movsd	.LC1(%rip), %xmm6
	movsd	.LC9(%rip), %xmm7
	movsd	.LC10(%rip), %xmm4
	movsd	%xmm7, -96(%rax)
	movsd	%xmm4, -88(%rax)
	movapd	%xmm5, %xmm4
	movsd	%xmm5, -1128(%rax)
	movsd	%xmm6, -1064(%rax)
	movl	$0, -1116(%rax)
	movl	$0, -1000(%rax)
	movq	$0, -984(%rax)
	movl	$4, -1016(%rax)
	movq	$0, -1112(%rax)
	movl	$0, -1104(%rax)
	movsd	.LC11(%rip), %xmm7
	movsd	env_curve+4096(%rip), %xmm3
	movl	$0, -996(%rax)
	movsd	%xmm7, -1096(%rax)
	movsd	%xmm3, -1032(%rax)
	movsd	%xmm2, -1048(%rax)
	movsd	%xmm0, -1040(%rax)
	movsd	%xmm0, -1024(%rax)
	movq	%r11, -16(%rdx,%r9)
	movsd	%xmm5, -152(%rdx,%r9)
	movq	$0, -80(%rdx,%r9)
	movsd	%xmm6, -88(%rdx,%r9)
	movq	$0, -32(%rdx,%r9)
	movsd	%xmm1, -160(%rdx,%r9)
	movl	$0, -144(%rdx,%r9)
	movl	$0, -140(%rdx,%r9)
	movapd	%xmm6, %xmm5
	movl	$0, -24(%rdx,%r9)
	movapd	%xmm7, %xmm6
	movq	$0, -8(%rdx,%r9)
	movl	$4, -40(%rdx,%r9)
	movq	$0, -136(%rdx,%r9)
	movl	$0, -128(%rdx,%r9)
	movsd	env_curve+4096(%rip), %xmm3
	movl	$0, -20(%rdx,%r9)
	movsd	%xmm7, -120(%rdx,%r9)
	movapd	%xmm4, %xmm7
	movsd	%xmm3, -56(%rdx,%r9)
	movsd	%xmm2, -72(%rdx,%r9)
	movsd	%xmm0, -64(%rdx,%r9)
	movsd	%xmm0, -48(%rdx,%r9)
	movq	%r14, %rdx
	addq	$1296, %r14
	subq	%rdi, %rdx
	movq	%r11, -176(%rdx,%r8)
	movsd	%xmm4, -312(%rdx,%r8)
	movsd	%xmm5, -248(%rdx,%r8)
	movq	$0, -240(%rdx,%r8)
	movq	$0, -192(%rdx,%r8)
	movsd	%xmm1, -320(%rdx,%r8)
	movl	$0, -304(%rdx,%r8)
	movl	$0, -300(%rdx,%r8)
	movapd	%xmm5, %xmm4
	movl	$0, -184(%rdx,%r8)
	movapd	%xmm6, %xmm5
	movq	$0, -168(%rdx,%r8)
	movl	$4, -200(%rdx,%r8)
	movq	$0, -296(%rdx,%r8)
	movl	$0, -288(%rdx,%r8)
	movsd	env_curve+4096(%rip), %xmm3
	movl	$0, -180(%rdx,%r8)
	movsd	%xmm6, -280(%rdx,%r8)
	movapd	%xmm7, %xmm6
	movsd	%xmm3, -216(%rdx,%r8)
	movsd	%xmm2, -232(%rdx,%r8)
	movsd	%xmm0, -224(%rdx,%r8)
	movsd	%xmm0, -208(%rdx,%r8)
	movq	%r13, %rdx
	addq	$1296, %r13
	subq	%rdi, %rdx
	movsd	%xmm7, -472(%rdx,%rsi)
	movq	%r11, -336(%rdx,%rsi)
	movsd	%xmm4, -408(%rdx,%rsi)
	movq	$0, -400(%rdx,%rsi)
	movq	$0, -352(%rdx,%rsi)
	movsd	%xmm1, -480(%rdx,%rsi)
	movl	$0, -464(%rdx,%rsi)
	movl	$0, -460(%rdx,%rsi)
	movapd	%xmm4, %xmm7
	movl	$0, -344(%rdx,%rsi)
	movapd	%xmm6, %xmm4
	movq	$0, -328(%rdx,%rsi)
	movl	$4, -360(%rdx,%rsi)
	movq	$0, -456(%rdx,%rsi)
	movl	$0, -448(%rdx,%rsi)
	movsd	env_curve+4096(%rip), %xmm3
	movsd	%xmm3, -376(%rdx,%rsi)
	movl	$0, -340(%rdx,%rsi)
	movsd	%xmm5, -440(%rdx,%rsi)
	movapd	%xmm7, %xmm5
	movsd	%xmm2, -392(%rdx,%rsi)
	movsd	%xmm0, -384(%rdx,%rsi)
	movsd	%xmm0, -368(%rdx,%rsi)
	movq	%r12, %rdx
	addq	$1296, %r12
	subq	%rdi, %rdx
	movsd	%xmm6, -632(%rdx,%rcx)
	movq	%r11, -496(%rdx,%rcx)
	movsd	%xmm1, -640(%rdx,%rcx)
	movq	$0, -560(%rdx,%rcx)
	movq	$0, -512(%rdx,%rcx)
	movsd	%xmm7, -568(%rdx,%rcx)
	movl	$0, -624(%rdx,%rcx)
	movl	$0, -620(%rdx,%rcx)
	movl	$0, -504(%rdx,%rcx)
	movq	$0, -488(%rdx,%rcx)
	movl	$4, -520(%rdx,%rcx)
	movq	$0, -616(%rdx,%rcx)
	movl	$0, -608(%rdx,%rcx)
	movsd	env_curve+4096(%rip), %xmm3
	movl	$0, -500(%rdx,%rcx)
	movsd	.LC11(%rip), %xmm6
	movsd	%xmm3, -536(%rdx,%rcx)
	movsd	%xmm2, -552(%rdx,%rcx)
	movsd	%xmm0, -544(%rdx,%rcx)
	movsd	%xmm0, -528(%rdx,%rcx)
	movsd	%xmm6, -600(%rdx,%rcx)
	movq	%rbp, %rdx
	addq	$1296, %rbp
	subq	%rdi, %rdx
	movq	%r11, -656(%rdx,%r10)
	movsd	%xmm1, -800(%rdx,%r10)
	movsd	%xmm4, -792(%rdx,%r10)
	movq	$0, -720(%rdx,%r10)
	movq	$0, -672(%rdx,%r10)
	movsd	%xmm5, -728(%rdx,%r10)
	movl	$0, -784(%rdx,%r10)
	movl	$0, -780(%rdx,%r10)
	cmpl	-4(%rsp), %ebx
	movl	$0, -664(%rdx,%r10)
	movq	$0, -648(%rdx,%r10)
	movl	$4, -680(%rdx,%r10)
	movq	$0, -776(%rdx,%r10)
	movl	$0, -768(%rdx,%r10)
	movsd	env_curve+4096(%rip), %xmm3
	movl	$0, -660(%rdx,%r10)
	movsd	%xmm2, -712(%rdx,%r10)
	movsd	%xmm3, -696(%rdx,%r10)
	movsd	%xmm0, -704(%rdx,%r10)
	movsd	%xmm0, -688(%rdx,%r10)
	movsd	%xmm6, -760(%rdx,%r10)
	jne	.L5
.L4:
	movsd	.LC3(%rip), %xmm0
	movq	$0, 41680(%rdi)
	movsd	.LC0(%rip), %xmm2
	movq	$waveform, 41696(%rdi)
	divsd	%xmm1, %xmm0
	movsd	%xmm1, 41664(%rdi)
	movsd	%xmm2, 41672(%rdi)
	movsd	%xmm0, 41688(%rdi)
	popq	%rbx
	.cfi_def_cfa_offset 48
	popq	%rbp
	.cfi_def_cfa_offset 40
	popq	%r12
	.cfi_def_cfa_offset 32
	popq	%r13
	.cfi_def_cfa_offset 24
	popq	%r14
	.cfi_def_cfa_offset 16
	popq	%r15
	.cfi_def_cfa_offset 8
	ret
	.cfi_endproc
.LFE28:
	.size	fmc_init, .-fmc_init
	.p2align 4,,15
	.globl	fmc_setAlg
	.type	fmc_setAlg, @function
fmc_setAlg:
.LFB29:
	.cfi_startproc
	xorl	%ecx, %ecx
	testl	%esi, %esi
	cmovns	%esi, %ecx
	movl	41632(%rdi), %esi
	andl	$31, %ecx
	movl	%ecx, 41636(%rdi)
	testl	%esi, %esi
	jle	.L9
	movl	%ecx, %eax
	movl	$818089009, %edx
	imull	%edx
	shrl	$2, %edx
	leal	0(,%rdx,4), %eax
	addl	%edx, %eax
	leal	(%rdx,%rax,4), %eax
	subl	%eax, %ecx
	leal	-1(%rsi), %eax
	movl	%ecx, %edx
	leaq	(%rax,%rax,8), %rax
	leaq	(%rax,%rax,8), %rax
	salq	$4, %rax
	leaq	1296(%rdi,%rax), %rax
	.p2align 4,,10
	.p2align 3
.L12:
	movl	%edx, 1424(%rdi)
	movq	$0, 1432(%rdi)
	addq	$1296, %rdi
	cmpq	%rax, %rdi
	jne	.L12
.L9:
	rep ret
	.cfi_endproc
.LFE29:
	.size	fmc_setAlg, .-fmc_setAlg
	.p2align 4,,15
	.globl	fmc_keyoff
	.type	fmc_keyoff, @function
fmc_keyoff:
.LFB31:
	.cfi_startproc
	cmpl	$126, %esi
	ja	.L13
	movl	41632(%rdi), %r8d
	testl	%r8d, %r8d
	jle	.L13
	movsbl	128(%rdi), %eax
	cmpl	%eax, %esi
	je	.L28
	leaq	129(%rdi), %rdx
	xorl	%eax, %eax
	jmp	.L19
	.p2align 4,,10
	.p2align 3
.L25:
	movsbl	(%rdx), %ecx
	addq	$1, %rdx
	cmpl	%ecx, %esi
	je	.L17
.L19:
	addl	$1, %eax
	cmpl	%r8d, %eax
	jne	.L25
.L13:
	rep ret
.L28:
	xorl	%eax, %eax
	.p2align 4,,10
	.p2align 3
.L17:
	cltq
	movb	$-1, 128(%rdi,%rax)
	leaq	(%rax,%rax,8), %rax
	leaq	(%rax,%rax,8), %rax
	salq	$4, %rax
	leaq	160(%rdi,%rax), %rax
	cmpl	$4, 120(%rax)
	je	.L20
	movl	$3, 120(%rax)
.L20:
	cmpl	$4, 280(%rax)
	je	.L21
	movl	$3, 280(%rax)
.L21:
	cmpl	$4, 440(%rax)
	je	.L22
	movl	$3, 440(%rax)
.L22:
	cmpl	$4, 600(%rax)
	je	.L23
	movl	$3, 600(%rax)
.L23:
	cmpl	$4, 760(%rax)
	je	.L24
	movl	$3, 760(%rax)
.L24:
	cmpl	$4, 920(%rax)
	je	.L13
	movl	$3, 920(%rax)
	ret
	.cfi_endproc
.LFE31:
	.size	fmc_keyoff, .-fmc_keyoff
	.p2align 4,,15
	.globl	fmc_allnotesoff
	.type	fmc_allnotesoff, @function
fmc_allnotesoff:
.LFB32:
	.cfi_startproc
	movl	41632(%rdi), %eax
	testl	%eax, %eax
	jle	.L29
	subl	$1, %eax
	leaq	128(%rdi), %rdx
	leaq	160(%rdi), %rcx
	leaq	1080(%rdi), %rsi
	leaq	129(%rdi,%rax), %r8
	leaq	960(%rdi), %r9
	.p2align 4,,10
	.p2align 3
.L40:
	cmpb	$-1, (%rdx)
	je	.L32
	movq	%rsi, %rax
	movb	$-1, (%rdx)
	subq	%r9, %rax
	cmpl	$4, 160(%rax,%rdi)
	je	.L33
	movl	$3, 160(%rax,%rdi)
.L33:
	cmpl	$4, 160(%rcx,%rax)
	je	.L34
	movl	$3, 160(%rcx,%rax)
.L34:
	cmpl	$4, 320(%rcx,%rax)
	je	.L35
	movl	$3, 320(%rcx,%rax)
.L35:
	cmpl	$4, 480(%rcx,%rax)
	je	.L36
	movl	$3, 480(%rcx,%rax)
.L36:
	cmpl	$4, 640(%rcx,%rax)
	je	.L37
	movl	$3, 640(%rcx,%rax)
.L37:
	cmpl	$4, (%rsi)
	je	.L32
	movl	$3, (%rsi)
.L32:
	addq	$1, %rdx
	addq	$1296, %rsi
	cmpq	%r8, %rdx
	jne	.L40
.L29:
	rep ret
	.cfi_endproc
.LFE32:
	.size	fmc_allnotesoff, .-fmc_allnotesoff
	.p2align 4,,15
	.globl	fmc_opvol
	.type	fmc_opvol, @function
fmc_opvol:
.LFB33:
	.cfi_startproc
	cmpl	$127, %edx
	ja	.L41
	cmpl	$5, %esi
	ja	.L41
	imull	%edx, %edx
	cvtsi2sd	%edx, %xmm0
	movl	41632(%rdi), %edx
	testl	%edx, %edx
	divsd	.LC12(%rip), %xmm0
	jle	.L41
	subl	$1, %edx
	movslq	%esi, %rsi
	leaq	(%rdx,%rdx,8), %rdx
	leaq	1120(%rdi,%rsi,8), %rax
	leaq	(%rdx,%rdx,8), %rdx
	leaq	(%rsi,%rdx,2), %rdx
	leaq	2416(%rdi,%rdx,8), %rdx
	.p2align 4,,10
	.p2align 3
.L44:
	movsd	%xmm0, (%rax)
	addq	$1296, %rax
	cmpq	%rdx, %rax
	jne	.L44
.L41:
	rep ret
	.cfi_endproc
.LFE33:
	.size	fmc_opvol, .-fmc_opvol
	.p2align 4,,15
	.globl	fmc_feedback
	.type	fmc_feedback, @function
fmc_feedback:
.LFB34:
	.cfi_startproc
	movl	41632(%rdi), %eax
	testl	%eax, %eax
	jle	.L45
	imull	%esi, %esi
	subl	$1, %eax
	leaq	(%rax,%rax,8), %rax
	cvtsi2sd	%esi, %xmm0
	leaq	(%rax,%rax,8), %rax
	salq	$4, %rax
	leaq	1296(%rdi,%rax), %rax
	divsd	.LC13(%rip), %xmm0
	.p2align 4,,10
	.p2align 3
.L48:
	movsd	%xmm0, 1408(%rdi)
	addq	$1296, %rdi
	cmpq	%rax, %rdi
	jne	.L48
.L45:
	rep ret
	.cfi_endproc
.LFE34:
	.size	fmc_feedback, .-fmc_feedback
	.p2align 4,,15
	.globl	fmc_opattack
	.type	fmc_opattack, @function
fmc_opattack:
.LFB35:
	.cfi_startproc
	pushq	%r13
	.cfi_def_cfa_offset 16
	.cfi_offset 13, -16
	movq	%rdi, %r13
	pushq	%r12
	.cfi_def_cfa_offset 24
	.cfi_offset 12, -24
	pushq	%rbp
	.cfi_def_cfa_offset 32
	.cfi_offset 6, -32
	pushq	%rbx
	.cfi_def_cfa_offset 40
	.cfi_offset 3, -40
	subq	$24, %rsp
	.cfi_def_cfa_offset 64
	movl	41632(%rdi), %eax
	testl	%eax, %eax
	jle	.L49
	cvtsi2sd	%edx, %xmm2
	movl	%esi, %r12d
	movq	%rdi, %rbx
	xorl	%ebp, %ebp
	subsd	.LC14(%rip), %xmm2
	mulsd	.LC15(%rip), %xmm2
	movsd	%xmm2, 8(%rsp)
	.p2align 4,,10
	.p2align 3
.L60:
	movsd	8(%rsp), %xmm1
	movsd	.LC5(%rip), %xmm0
	call	pow
	cmpl	$5, %r12d
	divsd	160(%rbx), %xmm0
	ja	.L51
	movl	%r12d, %eax
	jmp	*.L53(,%rax,8)
	.section	.rodata
	.align 8
	.align 4
.L53:
	.quad	.L52
	.quad	.L54
	.quad	.L55
	.quad	.L56
	.quad	.L57
	.quad	.L58
	.text
	.p2align 4,,10
	.p2align 3
.L57:
	movsd	%xmm0, 888(%rbx)
	.p2align 4,,10
	.p2align 3
.L51:
	addl	$1, %ebp
	addq	$1296, %rbx
	cmpl	%ebp, 41632(%r13)
	jg	.L60
.L49:
	addq	$24, %rsp
	.cfi_remember_state
	.cfi_def_cfa_offset 40
	popq	%rbx
	.cfi_def_cfa_offset 32
	popq	%rbp
	.cfi_def_cfa_offset 24
	popq	%r12
	.cfi_def_cfa_offset 16
	popq	%r13
	.cfi_def_cfa_offset 8
	ret
	.p2align 4,,10
	.p2align 3
.L52:
	.cfi_restore_state
	movsd	%xmm0, 248(%rbx)
	jmp	.L51
	.p2align 4,,10
	.p2align 3
.L58:
	movsd	%xmm0, 1048(%rbx)
	jmp	.L51
	.p2align 4,,10
	.p2align 3
.L55:
	movsd	%xmm0, 568(%rbx)
	jmp	.L51
	.p2align 4,,10
	.p2align 3
.L54:
	movsd	%xmm0, 408(%rbx)
	jmp	.L51
	.p2align 4,,10
	.p2align 3
.L56:
	movsd	%xmm0, 728(%rbx)
	jmp	.L51
	.cfi_endproc
.LFE35:
	.size	fmc_opattack, .-fmc_opattack
	.p2align 4,,15
	.globl	fmc_opdecay
	.type	fmc_opdecay, @function
fmc_opdecay:
.LFB36:
	.cfi_startproc
	pushq	%r13
	.cfi_def_cfa_offset 16
	.cfi_offset 13, -16
	movq	%rdi, %r13
	pushq	%r12
	.cfi_def_cfa_offset 24
	.cfi_offset 12, -24
	pushq	%rbp
	.cfi_def_cfa_offset 32
	.cfi_offset 6, -32
	pushq	%rbx
	.cfi_def_cfa_offset 40
	.cfi_offset 3, -40
	subq	$24, %rsp
	.cfi_def_cfa_offset 64
	movl	41632(%rdi), %eax
	testl	%eax, %eax
	jle	.L62
	cvtsi2sd	%edx, %xmm2
	movl	%esi, %r12d
	movq	%rdi, %rbx
	xorl	%ebp, %ebp
	subsd	.LC14(%rip), %xmm2
	mulsd	.LC15(%rip), %xmm2
	movsd	%xmm2, 8(%rsp)
	.p2align 4,,10
	.p2align 3
.L73:
	movsd	8(%rsp), %xmm1
	movsd	.LC5(%rip), %xmm0
	call	pow
	cmpl	$5, %r12d
	divsd	160(%rbx), %xmm0
	ja	.L64
	movl	%r12d, %eax
	jmp	*.L66(,%rax,8)
	.section	.rodata
	.align 8
	.align 4
.L66:
	.quad	.L65
	.quad	.L67
	.quad	.L68
	.quad	.L69
	.quad	.L70
	.quad	.L71
	.text
	.p2align 4,,10
	.p2align 3
.L70:
	movsd	%xmm0, 896(%rbx)
	.p2align 4,,10
	.p2align 3
.L64:
	addl	$1, %ebp
	addq	$1296, %rbx
	cmpl	%ebp, 41632(%r13)
	jg	.L73
.L62:
	addq	$24, %rsp
	.cfi_remember_state
	.cfi_def_cfa_offset 40
	popq	%rbx
	.cfi_def_cfa_offset 32
	popq	%rbp
	.cfi_def_cfa_offset 24
	popq	%r12
	.cfi_def_cfa_offset 16
	popq	%r13
	.cfi_def_cfa_offset 8
	ret
	.p2align 4,,10
	.p2align 3
.L65:
	.cfi_restore_state
	movsd	%xmm0, 256(%rbx)
	jmp	.L64
	.p2align 4,,10
	.p2align 3
.L71:
	movsd	%xmm0, 1056(%rbx)
	jmp	.L64
	.p2align 4,,10
	.p2align 3
.L68:
	movsd	%xmm0, 576(%rbx)
	jmp	.L64
	.p2align 4,,10
	.p2align 3
.L67:
	movsd	%xmm0, 416(%rbx)
	jmp	.L64
	.p2align 4,,10
	.p2align 3
.L69:
	movsd	%xmm0, 736(%rbx)
	jmp	.L64
	.cfi_endproc
.LFE36:
	.size	fmc_opdecay, .-fmc_opdecay
	.p2align 4,,15
	.globl	fmc_opsustain
	.type	fmc_opsustain, @function
fmc_opsustain:
.LFB37:
	.cfi_startproc
	movl	41632(%rdi), %ecx
	testl	%ecx, %ecx
	jle	.L75
	sall	$4, %edx
	movl	%edx, %eax
	sarl	$31, %eax
	shrl	$22, %eax
	addl	%eax, %edx
	andl	$1023, %edx
	subl	%eax, %edx
	leal	-1(%rcx), %eax
	movslq	%edx, %rdx
	leaq	(%rax,%rax,8), %rax
	leaq	(%rax,%rax,8), %rax
	salq	$4, %rax
	leaq	1296(%rdi,%rax), %rcx
	.p2align 4,,10
	.p2align 3
.L86:
	cmpl	$5, %esi
	movsd	env_curve(,%rdx,8), %xmm0
	ja	.L77
	movl	%esi, %eax
	jmp	*.L79(,%rax,8)
	.section	.rodata
	.align 8
	.align 4
.L79:
	.quad	.L78
	.quad	.L80
	.quad	.L81
	.quad	.L82
	.quad	.L83
	.quad	.L84
	.text
	.p2align 4,,10
	.p2align 3
.L83:
	movsd	%xmm0, 904(%rdi)
	.p2align 4,,10
	.p2align 3
.L77:
	addq	$1296, %rdi
	cmpq	%rcx, %rdi
	jne	.L86
.L75:
	rep ret
	.p2align 4,,10
	.p2align 3
.L78:
	movsd	%xmm0, 264(%rdi)
	jmp	.L77
	.p2align 4,,10
	.p2align 3
.L84:
	movsd	%xmm0, 1064(%rdi)
	jmp	.L77
	.p2align 4,,10
	.p2align 3
.L81:
	movsd	%xmm0, 584(%rdi)
	jmp	.L77
	.p2align 4,,10
	.p2align 3
.L80:
	movsd	%xmm0, 424(%rdi)
	jmp	.L77
	.p2align 4,,10
	.p2align 3
.L82:
	movsd	%xmm0, 744(%rdi)
	jmp	.L77
	.cfi_endproc
.LFE37:
	.size	fmc_opsustain, .-fmc_opsustain
	.p2align 4,,15
	.globl	fmc_oprelease
	.type	fmc_oprelease, @function
fmc_oprelease:
.LFB38:
	.cfi_startproc
	pushq	%r13
	.cfi_def_cfa_offset 16
	.cfi_offset 13, -16
	movq	%rdi, %r13
	pushq	%r12
	.cfi_def_cfa_offset 24
	.cfi_offset 12, -24
	pushq	%rbp
	.cfi_def_cfa_offset 32
	.cfi_offset 6, -32
	pushq	%rbx
	.cfi_def_cfa_offset 40
	.cfi_offset 3, -40
	subq	$24, %rsp
	.cfi_def_cfa_offset 64
	movl	41632(%rdi), %eax
	testl	%eax, %eax
	jle	.L87
	cvtsi2sd	%edx, %xmm2
	movl	%esi, %r12d
	movq	%rdi, %rbx
	xorl	%ebp, %ebp
	subsd	.LC14(%rip), %xmm2
	mulsd	.LC15(%rip), %xmm2
	movsd	%xmm2, 8(%rsp)
	.p2align 4,,10
	.p2align 3
.L98:
	movsd	8(%rsp), %xmm1
	movsd	.LC5(%rip), %xmm0
	call	pow
	cmpl	$5, %r12d
	divsd	160(%rbx), %xmm0
	ja	.L89
	movl	%r12d, %eax
	jmp	*.L91(,%rax,8)
	.section	.rodata
	.align 8
	.align 4
.L91:
	.quad	.L90
	.quad	.L92
	.quad	.L93
	.quad	.L94
	.quad	.L95
	.quad	.L96
	.text
	.p2align 4,,10
	.p2align 3
.L95:
	movsd	%xmm0, 912(%rbx)
	.p2align 4,,10
	.p2align 3
.L89:
	addl	$1, %ebp
	addq	$1296, %rbx
	cmpl	%ebp, 41632(%r13)
	jg	.L98
.L87:
	addq	$24, %rsp
	.cfi_remember_state
	.cfi_def_cfa_offset 40
	popq	%rbx
	.cfi_def_cfa_offset 32
	popq	%rbp
	.cfi_def_cfa_offset 24
	popq	%r12
	.cfi_def_cfa_offset 16
	popq	%r13
	.cfi_def_cfa_offset 8
	ret
	.p2align 4,,10
	.p2align 3
.L90:
	.cfi_restore_state
	movsd	%xmm0, 272(%rbx)
	jmp	.L89
	.p2align 4,,10
	.p2align 3
.L96:
	movsd	%xmm0, 1072(%rbx)
	jmp	.L89
	.p2align 4,,10
	.p2align 3
.L93:
	movsd	%xmm0, 592(%rbx)
	jmp	.L89
	.p2align 4,,10
	.p2align 3
.L92:
	movsd	%xmm0, 432(%rbx)
	jmp	.L89
	.p2align 4,,10
	.p2align 3
.L94:
	movsd	%xmm0, 752(%rbx)
	jmp	.L89
	.cfi_endproc
.LFE38:
	.size	fmc_oprelease, .-fmc_oprelease
	.p2align 4,,15
	.globl	fmv_opattack
	.type	fmv_opattack, @function
fmv_opattack:
.LFB39:
	.cfi_startproc
	cvtsi2sd	%edx, %xmm1
	pushq	%rbp
	.cfi_def_cfa_offset 16
	.cfi_offset 6, -16
	movq	%rdi, %rbp
	pushq	%rbx
	.cfi_def_cfa_offset 24
	.cfi_offset 3, -24
	movl	%esi, %ebx
	subq	$8, %rsp
	.cfi_def_cfa_offset 32
	movsd	.LC5(%rip), %xmm0
	subsd	.LC14(%rip), %xmm1
	mulsd	.LC15(%rip), %xmm1
	call	pow
	cmpl	$5, %ebx
	divsd	0(%rbp), %xmm0
	ja	.L100
	jmp	*.L103(,%rbx,8)
	.section	.rodata
	.align 8
	.align 4
.L103:
	.quad	.L102
	.quad	.L104
	.quad	.L105
	.quad	.L106
	.quad	.L107
	.quad	.L108
	.text
	.p2align 4,,10
	.p2align 3
.L108:
	movsd	%xmm0, 888(%rbp)
.L100:
	addq	$8, %rsp
	.cfi_remember_state
	.cfi_def_cfa_offset 24
	popq	%rbx
	.cfi_def_cfa_offset 16
	popq	%rbp
	.cfi_def_cfa_offset 8
	ret
	.p2align 4,,10
	.p2align 3
.L107:
	.cfi_restore_state
	movsd	%xmm0, 728(%rbp)
	addq	$8, %rsp
	.cfi_remember_state
	.cfi_def_cfa_offset 24
	popq	%rbx
	.cfi_def_cfa_offset 16
	popq	%rbp
	.cfi_def_cfa_offset 8
	ret
	.p2align 4,,10
	.p2align 3
.L102:
	.cfi_restore_state
	movsd	%xmm0, 88(%rbp)
	addq	$8, %rsp
	.cfi_remember_state
	.cfi_def_cfa_offset 24
	popq	%rbx
	.cfi_def_cfa_offset 16
	popq	%rbp
	.cfi_def_cfa_offset 8
	ret
	.p2align 4,,10
	.p2align 3
.L104:
	.cfi_restore_state
	movsd	%xmm0, 248(%rbp)
	addq	$8, %rsp
	.cfi_remember_state
	.cfi_def_cfa_offset 24
	popq	%rbx
	.cfi_def_cfa_offset 16
	popq	%rbp
	.cfi_def_cfa_offset 8
	ret
	.p2align 4,,10
	.p2align 3
.L105:
	.cfi_restore_state
	movsd	%xmm0, 408(%rbp)
	addq	$8, %rsp
	.cfi_remember_state
	.cfi_def_cfa_offset 24
	popq	%rbx
	.cfi_def_cfa_offset 16
	popq	%rbp
	.cfi_def_cfa_offset 8
	ret
	.p2align 4,,10
	.p2align 3
.L106:
	.cfi_restore_state
	movsd	%xmm0, 568(%rbp)
	addq	$8, %rsp
	.cfi_def_cfa_offset 24
	popq	%rbx
	.cfi_def_cfa_offset 16
	popq	%rbp
	.cfi_def_cfa_offset 8
	ret
	.cfi_endproc
.LFE39:
	.size	fmv_opattack, .-fmv_opattack
	.p2align 4,,15
	.globl	fmv_opdecay
	.type	fmv_opdecay, @function
fmv_opdecay:
.LFB40:
	.cfi_startproc
	cvtsi2sd	%edx, %xmm1
	pushq	%rbp
	.cfi_def_cfa_offset 16
	.cfi_offset 6, -16
	movq	%rdi, %rbp
	pushq	%rbx
	.cfi_def_cfa_offset 24
	.cfi_offset 3, -24
	movl	%esi, %ebx
	subq	$8, %rsp
	.cfi_def_cfa_offset 32
	movsd	.LC5(%rip), %xmm0
	subsd	.LC14(%rip), %xmm1
	mulsd	.LC15(%rip), %xmm1
	call	pow
	cmpl	$5, %ebx
	divsd	0(%rbp), %xmm0
	ja	.L110
	jmp	*.L113(,%rbx,8)
	.section	.rodata
	.align 8
	.align 4
.L113:
	.quad	.L112
	.quad	.L114
	.quad	.L115
	.quad	.L116
	.quad	.L117
	.quad	.L118
	.text
	.p2align 4,,10
	.p2align 3
.L118:
	movsd	%xmm0, 896(%rbp)
.L110:
	addq	$8, %rsp
	.cfi_remember_state
	.cfi_def_cfa_offset 24
	popq	%rbx
	.cfi_def_cfa_offset 16
	popq	%rbp
	.cfi_def_cfa_offset 8
	ret
	.p2align 4,,10
	.p2align 3
.L117:
	.cfi_restore_state
	movsd	%xmm0, 736(%rbp)
	addq	$8, %rsp
	.cfi_remember_state
	.cfi_def_cfa_offset 24
	popq	%rbx
	.cfi_def_cfa_offset 16
	popq	%rbp
	.cfi_def_cfa_offset 8
	ret
	.p2align 4,,10
	.p2align 3
.L112:
	.cfi_restore_state
	movsd	%xmm0, 96(%rbp)
	addq	$8, %rsp
	.cfi_remember_state
	.cfi_def_cfa_offset 24
	popq	%rbx
	.cfi_def_cfa_offset 16
	popq	%rbp
	.cfi_def_cfa_offset 8
	ret
	.p2align 4,,10
	.p2align 3
.L114:
	.cfi_restore_state
	movsd	%xmm0, 256(%rbp)
	addq	$8, %rsp
	.cfi_remember_state
	.cfi_def_cfa_offset 24
	popq	%rbx
	.cfi_def_cfa_offset 16
	popq	%rbp
	.cfi_def_cfa_offset 8
	ret
	.p2align 4,,10
	.p2align 3
.L115:
	.cfi_restore_state
	movsd	%xmm0, 416(%rbp)
	addq	$8, %rsp
	.cfi_remember_state
	.cfi_def_cfa_offset 24
	popq	%rbx
	.cfi_def_cfa_offset 16
	popq	%rbp
	.cfi_def_cfa_offset 8
	ret
	.p2align 4,,10
	.p2align 3
.L116:
	.cfi_restore_state
	movsd	%xmm0, 576(%rbp)
	addq	$8, %rsp
	.cfi_def_cfa_offset 24
	popq	%rbx
	.cfi_def_cfa_offset 16
	popq	%rbp
	.cfi_def_cfa_offset 8
	ret
	.cfi_endproc
.LFE40:
	.size	fmv_opdecay, .-fmv_opdecay
	.p2align 4,,15
	.globl	fmv_opsustain
	.type	fmv_opsustain, @function
fmv_opsustain:
.LFB41:
	.cfi_startproc
	sall	$4, %edx
	movl	%edx, %eax
	sarl	$31, %eax
	shrl	$22, %eax
	addl	%eax, %edx
	andl	$1023, %edx
	subl	%eax, %edx
	cmpl	$5, %esi
	movslq	%edx, %rdx
	movsd	env_curve(,%rdx,8), %xmm0
	ja	.L120
	movl	%esi, %esi
	jmp	*.L123(,%rsi,8)
	.section	.rodata
	.align 8
	.align 4
.L123:
	.quad	.L122
	.quad	.L124
	.quad	.L125
	.quad	.L126
	.quad	.L127
	.quad	.L128
	.text
	.p2align 4,,10
	.p2align 3
.L128:
	movsd	%xmm0, 904(%rdi)
.L120:
	rep ret
	.p2align 4,,10
	.p2align 3
.L127:
	movsd	%xmm0, 744(%rdi)
	ret
	.p2align 4,,10
	.p2align 3
.L122:
	movsd	%xmm0, 104(%rdi)
	ret
	.p2align 4,,10
	.p2align 3
.L124:
	movsd	%xmm0, 264(%rdi)
	ret
	.p2align 4,,10
	.p2align 3
.L125:
	movsd	%xmm0, 424(%rdi)
	ret
	.p2align 4,,10
	.p2align 3
.L126:
	movsd	%xmm0, 584(%rdi)
	ret
	.cfi_endproc
.LFE41:
	.size	fmv_opsustain, .-fmv_opsustain
	.p2align 4,,15
	.globl	fmv_oprelease
	.type	fmv_oprelease, @function
fmv_oprelease:
.LFB42:
	.cfi_startproc
	cvtsi2sd	%edx, %xmm1
	pushq	%rbp
	.cfi_def_cfa_offset 16
	.cfi_offset 6, -16
	movq	%rdi, %rbp
	pushq	%rbx
	.cfi_def_cfa_offset 24
	.cfi_offset 3, -24
	movl	%esi, %ebx
	subq	$8, %rsp
	.cfi_def_cfa_offset 32
	movsd	.LC5(%rip), %xmm0
	subsd	.LC14(%rip), %xmm1
	mulsd	.LC15(%rip), %xmm1
	call	pow
	cmpl	$5, %ebx
	divsd	0(%rbp), %xmm0
	ja	.L129
	jmp	*.L132(,%rbx,8)
	.section	.rodata
	.align 8
	.align 4
.L132:
	.quad	.L131
	.quad	.L133
	.quad	.L134
	.quad	.L135
	.quad	.L136
	.quad	.L137
	.text
	.p2align 4,,10
	.p2align 3
.L137:
	movsd	%xmm0, 912(%rbp)
.L129:
	addq	$8, %rsp
	.cfi_remember_state
	.cfi_def_cfa_offset 24
	popq	%rbx
	.cfi_def_cfa_offset 16
	popq	%rbp
	.cfi_def_cfa_offset 8
	ret
	.p2align 4,,10
	.p2align 3
.L136:
	.cfi_restore_state
	movsd	%xmm0, 752(%rbp)
	addq	$8, %rsp
	.cfi_remember_state
	.cfi_def_cfa_offset 24
	popq	%rbx
	.cfi_def_cfa_offset 16
	popq	%rbp
	.cfi_def_cfa_offset 8
	ret
	.p2align 4,,10
	.p2align 3
.L131:
	.cfi_restore_state
	movsd	%xmm0, 112(%rbp)
	addq	$8, %rsp
	.cfi_remember_state
	.cfi_def_cfa_offset 24
	popq	%rbx
	.cfi_def_cfa_offset 16
	popq	%rbp
	.cfi_def_cfa_offset 8
	ret
	.p2align 4,,10
	.p2align 3
.L133:
	.cfi_restore_state
	movsd	%xmm0, 272(%rbp)
	addq	$8, %rsp
	.cfi_remember_state
	.cfi_def_cfa_offset 24
	popq	%rbx
	.cfi_def_cfa_offset 16
	popq	%rbp
	.cfi_def_cfa_offset 8
	ret
	.p2align 4,,10
	.p2align 3
.L134:
	.cfi_restore_state
	movsd	%xmm0, 432(%rbp)
	addq	$8, %rsp
	.cfi_remember_state
	.cfi_def_cfa_offset 24
	popq	%rbx
	.cfi_def_cfa_offset 16
	popq	%rbp
	.cfi_def_cfa_offset 8
	ret
	.p2align 4,,10
	.p2align 3
.L135:
	.cfi_restore_state
	movsd	%xmm0, 592(%rbp)
	addq	$8, %rsp
	.cfi_def_cfa_offset 24
	popq	%rbx
	.cfi_def_cfa_offset 16
	popq	%rbp
	.cfi_def_cfa_offset 8
	ret
	.cfi_endproc
.LFE42:
	.size	fmv_oprelease, .-fmv_oprelease
	.p2align 4,,15
	.globl	fmv_feedback
	.type	fmv_feedback, @function
fmv_feedback:
.LFB43:
	.cfi_startproc
	imull	%esi, %esi
	cvtsi2sd	%esi, %xmm0
	divsd	.LC13(%rip), %xmm0
	movsd	%xmm0, 1248(%rdi)
	ret
	.cfi_endproc
.LFE43:
	.size	fmv_feedback, .-fmv_feedback
	.p2align 4,,15
	.globl	fmc_opmul
	.type	fmc_opmul, @function
fmc_opmul:
.LFB44:
	.cfi_startproc
	cmpl	$15, %edx
	ja	.L212
	cmpl	$5, %esi
	ja	.L212
	pushq	%r15
	.cfi_def_cfa_offset 16
	.cfi_offset 15, -16
	movslq	%edx, %rdx
	pushq	%r14
	.cfi_def_cfa_offset 24
	.cfi_offset 14, -24
	pushq	%r13
	.cfi_def_cfa_offset 32
	.cfi_offset 13, -32
	pushq	%r12
	.cfi_def_cfa_offset 40
	.cfi_offset 12, -40
	pushq	%rbp
	.cfi_def_cfa_offset 48
	.cfi_offset 6, -48
	movq	%rdi, %rbp
	pushq	%rbx
	.cfi_def_cfa_offset 56
	.cfi_offset 3, -56
	subq	$120, %rsp
	.cfi_def_cfa_offset 176
	movl	41632(%rdi), %eax
	movsd	mfTable(,%rdx,8), %xmm7
	testl	%eax, %eax
	movsd	%xmm7, 8(%rsp)
	jle	.L140
	leaq	160(%rdi), %rax
	leaq	800(%rdi), %r12
	leaq	480(%rdi), %r14
	leaq	320(%rdi), %r15
	leaq	640(%rdi), %r13
	leaq	960(%rbp), %r11
	movslq	%esi, %rsi
	movq	%rdi, %rbx
	xorl	%edx, %edx
	leaq	1008(%rax,%rsi,8), %rcx
	xorpd	%xmm2, %xmm2
	movsd	.LC16(%rip), %xmm1
	movq	%r15, %r9
	movq	%r14, %r8
	movq	%r13, %rdi
	movq	%r12, %rsi
	movq	%r11, (%rsp)
	jmp	.L185
	.p2align 4,,10
	.p2align 3
.L219:
	mulsd	%xmm0, %xmm3
.L180:
	ucomisd	%xmm1, %xmm3
	jbe	.L181
	movq	(%rsp), %r11
	movq	%r12, %r10
	movsd	.LC6(%rip), %xmm0
	subq	%rbp, %r10
	mulsd	-800(%r10,%r11), %xmm0
	ucomisd	%xmm3, %xmm0
	ja	.L213
.L181:
	movq	(%rsp), %r11
	movq	%r12, %r10
	subq	%rbp, %r10
	movl	$0, -780(%r11,%r10)
.L184:
	addl	$1, %edx
	addq	$1296, %rcx
	addq	$1296, %rbx
	addq	$1296, %r12
	addq	$1296, %r13
	addq	$1296, %r14
	addq	$1296, %r15
	addq	$1296, %rax
	cmpl	%edx, 41632(%rbp)
	jle	.L140
.L185:
	movsd	8(%rsp), %xmm6
	movsd	%xmm6, (%rcx)
	movsd	1168(%rbx), %xmm0
	movsd	1448(%rbx), %xmm3
	ucomisd	%xmm2, %xmm0
	jbe	.L204
	movapd	%xmm0, %xmm4
	mulsd	%xmm3, %xmm4
.L145:
	ucomisd	%xmm1, %xmm4
	jbe	.L146
	movsd	.LC6(%rip), %xmm0
	mulsd	160(%rbx), %xmm0
	ucomisd	%xmm4, %xmm0
	ja	.L214
.L146:
	movl	$0, 180(%rbx)
.L149:
	movsd	1176(%rbx), %xmm0
	ucomisd	%xmm2, %xmm0
	jbe	.L205
	movapd	%xmm0, %xmm4
	mulsd	%xmm3, %xmm4
.L152:
	ucomisd	%xmm1, %xmm4
	jbe	.L153
	movq	%rax, %r10
	movsd	.LC6(%rip), %xmm0
	subq	%rbp, %r10
	mulsd	-160(%r10,%r9), %xmm0
	ucomisd	%xmm4, %xmm0
	ja	.L215
.L153:
	movq	%rax, %r10
	subq	%rbp, %r10
	movl	$0, -140(%r9,%r10)
.L156:
	movsd	1184(%rbx), %xmm0
	ucomisd	%xmm2, %xmm0
	jbe	.L206
	movapd	%xmm0, %xmm4
	mulsd	%xmm3, %xmm4
.L159:
	ucomisd	%xmm1, %xmm4
	jbe	.L160
	movq	%r15, %r10
	movsd	.LC6(%rip), %xmm0
	subq	%rbp, %r10
	mulsd	-320(%r10,%r8), %xmm0
	ucomisd	%xmm4, %xmm0
	ja	.L216
.L160:
	movq	%r15, %r10
	subq	%rbp, %r10
	movl	$0, -300(%r8,%r10)
.L163:
	movsd	1192(%rbx), %xmm0
	ucomisd	%xmm2, %xmm0
	jbe	.L207
	movapd	%xmm0, %xmm4
	mulsd	%xmm3, %xmm4
.L166:
	ucomisd	%xmm1, %xmm4
	jbe	.L167
	movq	%r14, %r10
	movsd	.LC6(%rip), %xmm0
	subq	%rbp, %r10
	mulsd	-480(%r10,%rdi), %xmm0
	ucomisd	%xmm4, %xmm0
	ja	.L217
.L167:
	movq	%r14, %r10
	subq	%rbp, %r10
	movl	$0, -460(%rdi,%r10)
.L170:
	movsd	1200(%rbx), %xmm0
	ucomisd	%xmm2, %xmm0
	jbe	.L208
	movapd	%xmm0, %xmm4
	mulsd	%xmm3, %xmm4
.L173:
	ucomisd	%xmm1, %xmm4
	jbe	.L174
	movq	%r13, %r10
	movsd	.LC6(%rip), %xmm0
	subq	%rbp, %r10
	mulsd	-640(%r10,%rsi), %xmm0
	ucomisd	%xmm4, %xmm0
	ja	.L218
.L174:
	movq	%r13, %r10
	subq	%rbp, %r10
	movl	$0, -620(%rsi,%r10)
.L177:
	movsd	1208(%rbx), %xmm0
	ucomisd	%xmm2, %xmm0
	ja	.L219
	movsd	1000(%rbx), %xmm3
	jmp	.L180
	.p2align 4,,10
	.p2align 3
.L140:
	addq	$120, %rsp
	.cfi_def_cfa_offset 56
	popq	%rbx
	.cfi_restore 3
	.cfi_def_cfa_offset 48
	popq	%rbp
	.cfi_restore 6
	.cfi_def_cfa_offset 40
	popq	%r12
	.cfi_restore 12
	.cfi_def_cfa_offset 32
	popq	%r13
	.cfi_restore 13
	.cfi_def_cfa_offset 24
	popq	%r14
	.cfi_restore 14
	.cfi_def_cfa_offset 16
	popq	%r15
	.cfi_restore 15
	.cfi_def_cfa_offset 8
.L212:
	rep ret
	.p2align 4,,10
	.p2align 3
.L208:
	.cfi_def_cfa_offset 176
	.cfi_offset 3, -56
	.cfi_offset 6, -48
	.cfi_offset 12, -40
	.cfi_offset 13, -32
	.cfi_offset 14, -24
	.cfi_offset 15, -16
	movsd	840(%rbx), %xmm4
	jmp	.L173
	.p2align 4,,10
	.p2align 3
.L207:
	movsd	680(%rbx), %xmm4
	jmp	.L166
	.p2align 4,,10
	.p2align 3
.L204:
	movsd	200(%rbx), %xmm4
	jmp	.L145
	.p2align 4,,10
	.p2align 3
.L206:
	movsd	520(%rbx), %xmm4
	jmp	.L159
	.p2align 4,,10
	.p2align 3
.L205:
	movsd	360(%rbx), %xmm4
	jmp	.L152
	.p2align 4,,10
	.p2align 3
.L215:
	movapd	%xmm4, %xmm0
	movq	%r9, 104(%rsp)
	movq	%rdi, 96(%rsp)
	movq	%r8, 88(%rsp)
	movsd	%xmm2, 48(%rsp)
	movq	%rsi, 80(%rsp)
	movq	%rax, 72(%rsp)
	movsd	%xmm1, 40(%rsp)
	movl	%edx, 64(%rsp)
	movsd	%xmm3, 24(%rsp)
	movq	%rcx, 56(%rsp)
	movsd	%xmm4, 16(%rsp)
	movq	%r10, 32(%rsp)
	call	log10
	movq	32(%rsp), %r10
	movq	104(%rsp), %r9
	addsd	%xmm0, %xmm0
	movsd	16(%rsp), %xmm4
	movq	56(%rsp), %rcx
	movsd	.LC1(%rip), %xmm5
	movl	64(%rsp), %edx
	divsd	-160(%r10,%r9), %xmm4
	movq	72(%rsp), %rax
	movq	80(%rsp), %rsi
	movq	88(%rsp), %r8
	movq	96(%rsp), %rdi
	divsd	%xmm0, %xmm5
	mulsd	.LC17(%rip), %xmm4
	movsd	24(%rsp), %xmm3
	movsd	40(%rsp), %xmm1
	movsd	%xmm5, -8(%r10,%r9)
	movsd	48(%rsp), %xmm2
	cvttsd2siq	%xmm4, %r11
	movl	%r11d, -140(%r10,%r9)
	jmp	.L156
	.p2align 4,,10
	.p2align 3
.L216:
	movapd	%xmm4, %xmm0
	movq	%r9, 104(%rsp)
	movq	%rdi, 96(%rsp)
	movq	%r8, 88(%rsp)
	movsd	%xmm2, 48(%rsp)
	movq	%rsi, 80(%rsp)
	movq	%rax, 72(%rsp)
	movsd	%xmm1, 40(%rsp)
	movl	%edx, 64(%rsp)
	movsd	%xmm3, 24(%rsp)
	movq	%rcx, 56(%rsp)
	movsd	%xmm4, 16(%rsp)
	movq	%r10, 32(%rsp)
	call	log10
	movq	32(%rsp), %r10
	movq	88(%rsp), %r8
	addsd	%xmm0, %xmm0
	movsd	16(%rsp), %xmm4
	movq	56(%rsp), %rcx
	movsd	.LC1(%rip), %xmm5
	movl	64(%rsp), %edx
	divsd	-320(%r10,%r8), %xmm4
	movq	72(%rsp), %rax
	movq	80(%rsp), %rsi
	movq	96(%rsp), %rdi
	movq	104(%rsp), %r9
	divsd	%xmm0, %xmm5
	mulsd	.LC17(%rip), %xmm4
	movsd	24(%rsp), %xmm3
	movsd	40(%rsp), %xmm1
	movsd	%xmm5, -168(%r10,%r8)
	movsd	48(%rsp), %xmm2
	cvttsd2siq	%xmm4, %r11
	movl	%r11d, -300(%r10,%r8)
	jmp	.L163
	.p2align 4,,10
	.p2align 3
.L218:
	movapd	%xmm4, %xmm0
	movq	%r9, 104(%rsp)
	movq	%rdi, 96(%rsp)
	movq	%r8, 88(%rsp)
	movsd	%xmm2, 48(%rsp)
	movq	%rsi, 80(%rsp)
	movq	%rax, 72(%rsp)
	movsd	%xmm1, 40(%rsp)
	movl	%edx, 64(%rsp)
	movsd	%xmm3, 24(%rsp)
	movq	%rcx, 56(%rsp)
	movsd	%xmm4, 16(%rsp)
	movq	%r10, 32(%rsp)
	call	log10
	movq	32(%rsp), %r10
	movq	80(%rsp), %rsi
	addsd	%xmm0, %xmm0
	movsd	16(%rsp), %xmm4
	movq	56(%rsp), %rcx
	movsd	.LC1(%rip), %xmm5
	movl	64(%rsp), %edx
	divsd	-640(%r10,%rsi), %xmm4
	movq	72(%rsp), %rax
	movq	88(%rsp), %r8
	movq	96(%rsp), %rdi
	movq	104(%rsp), %r9
	divsd	%xmm0, %xmm5
	mulsd	.LC17(%rip), %xmm4
	movsd	24(%rsp), %xmm3
	movsd	40(%rsp), %xmm1
	movsd	%xmm5, -488(%r10,%rsi)
	movsd	48(%rsp), %xmm2
	cvttsd2siq	%xmm4, %r11
	movl	%r11d, -620(%r10,%rsi)
	jmp	.L177
	.p2align 4,,10
	.p2align 3
.L217:
	movapd	%xmm4, %xmm0
	movq	%r9, 104(%rsp)
	movq	%rdi, 96(%rsp)
	movq	%r8, 88(%rsp)
	movsd	%xmm2, 48(%rsp)
	movq	%rsi, 80(%rsp)
	movq	%rax, 72(%rsp)
	movsd	%xmm1, 40(%rsp)
	movl	%edx, 64(%rsp)
	movsd	%xmm3, 24(%rsp)
	movq	%rcx, 56(%rsp)
	movsd	%xmm4, 16(%rsp)
	movq	%r10, 32(%rsp)
	call	log10
	movq	32(%rsp), %r10
	movq	96(%rsp), %rdi
	addsd	%xmm0, %xmm0
	movsd	16(%rsp), %xmm4
	movq	56(%rsp), %rcx
	movsd	.LC1(%rip), %xmm5
	movl	64(%rsp), %edx
	divsd	-480(%r10,%rdi), %xmm4
	movq	72(%rsp), %rax
	movq	80(%rsp), %rsi
	movq	88(%rsp), %r8
	movq	104(%rsp), %r9
	divsd	%xmm0, %xmm5
	mulsd	.LC17(%rip), %xmm4
	movsd	24(%rsp), %xmm3
	movsd	40(%rsp), %xmm1
	movsd	%xmm5, -328(%r10,%rdi)
	movsd	48(%rsp), %xmm2
	cvttsd2siq	%xmm4, %r11
	movl	%r11d, -460(%r10,%rdi)
	jmp	.L170
	.p2align 4,,10
	.p2align 3
.L213:
	movapd	%xmm3, %xmm0
	movq	%r9, 96(%rsp)
	movq	%rdi, 88(%rsp)
	movq	%r8, 80(%rsp)
	movsd	%xmm2, 40(%rsp)
	movq	%rsi, 72(%rsp)
	movq	%rax, 64(%rsp)
	movsd	%xmm1, 32(%rsp)
	movl	%edx, 56(%rsp)
	movsd	%xmm3, 16(%rsp)
	movq	%rcx, 48(%rsp)
	movq	%r10, 24(%rsp)
	call	log10
	movq	(%rsp), %rax
	movq	24(%rsp), %r10
	addsd	%xmm0, %xmm0
	movsd	16(%rsp), %xmm3
	movq	48(%rsp), %rcx
	movsd	.LC1(%rip), %xmm4
	movl	56(%rsp), %edx
	divsd	-800(%r10,%rax), %xmm3
	movq	72(%rsp), %rsi
	movq	80(%rsp), %r8
	movq	88(%rsp), %rdi
	movq	96(%rsp), %r9
	divsd	%xmm0, %xmm4
	mulsd	.LC17(%rip), %xmm3
	movsd	32(%rsp), %xmm1
	movsd	40(%rsp), %xmm2
	movsd	%xmm4, -648(%r10,%rax)
	cvttsd2siq	%xmm3, %r11
	movl	%r11d, -780(%r10,%rax)
	movq	64(%rsp), %rax
	jmp	.L184
	.p2align 4,,10
	.p2align 3
.L214:
	movapd	%xmm4, %xmm0
	movq	%r9, 96(%rsp)
	movq	%rdi, 88(%rsp)
	movq	%r8, 80(%rsp)
	movsd	%xmm2, 40(%rsp)
	movq	%rsi, 72(%rsp)
	movq	%rax, 64(%rsp)
	movsd	%xmm1, 32(%rsp)
	movl	%edx, 56(%rsp)
	movsd	%xmm3, 24(%rsp)
	movq	%rcx, 48(%rsp)
	movsd	%xmm4, 16(%rsp)
	call	log10
	movsd	16(%rsp), %xmm4
	addsd	%xmm0, %xmm0
	movsd	.LC1(%rip), %xmm7
	movq	48(%rsp), %rcx
	divsd	160(%rbx), %xmm4
	movl	56(%rsp), %edx
	movq	64(%rsp), %rax
	movq	72(%rsp), %rsi
	movq	80(%rsp), %r8
	movq	88(%rsp), %rdi
	movq	96(%rsp), %r9
	divsd	%xmm0, %xmm7
	mulsd	.LC17(%rip), %xmm4
	movsd	24(%rsp), %xmm3
	movsd	32(%rsp), %xmm1
	movsd	%xmm7, 312(%rbx)
	movsd	40(%rsp), %xmm2
	cvttsd2siq	%xmm4, %r10
	movl	%r10d, 180(%rbx)
	jmp	.L149
	.cfi_endproc
.LFE44:
	.size	fmc_opmul, .-fmc_opmul
	.section	.rodata.str1.1,"aMS",@progbits,1
.LC18:
	.string	"Actual phase %08X\n"
.LC19:
	.string	"New phase %08X\n"
	.text
	.p2align 4,,15
	.globl	fmv_keyon
	.type	fmv_keyon, @function
fmv_keyon:
.LFB46:
	.cfi_startproc
	unpcklps	%xmm0, %xmm0
	pushq	%rbx
	.cfi_def_cfa_offset 16
	.cfi_offset 3, -16
	imull	%esi, %esi
	xorpd	%xmm4, %xmm4
	subq	$16, %rsp
	.cfi_def_cfa_offset 32
	movq	%rdi, %rbx
	cvtps2pd	%xmm0, %xmm3
	cvtsi2sd	%esi, %xmm0
	movsd	%xmm3, (%rsp)
	movsd	%xmm3, 1288(%rdi)
	divsd	.LC13(%rip), %xmm0
	movsd	%xmm0, 1256(%rdi)
	movsd	1008(%rdi), %xmm0
	ucomisd	%xmm4, %xmm0
	jbe	.L317
	mulsd	%xmm3, %xmm0
.L223:
	unpcklpd	%xmm0, %xmm0
	cvtpd2ps	%xmm0, %xmm1
	unpcklps	%xmm1, %xmm1
	cvtps2pd	%xmm1, %xmm1
	ucomisd	.LC16(%rip), %xmm1
	jbe	.L224
	movsd	.LC6(%rip), %xmm0
	mulsd	(%rbx), %xmm0
	ucomisd	%xmm1, %xmm0
	ja	.L336
.L224:
	movl	$0, 20(%rbx)
.L227:
	movl	16(%rbx), %edx
	xorl	%eax, %eax
	movl	$.LC18, %esi
	movl	$1, %edi
	call	__printf_chk
	movl	120(%rbx), %eax
	testl	%eax, %eax
	je	.L330
	cmpl	$1, %eax
	je	.L230
	cmpl	$4, %eax
	je	.L232
	movl	16(%rbx), %edx
.L233:
	movl	$0, 120(%rbx)
	jmp	.L231
	.p2align 4,,10
	.p2align 3
.L230:
	movl	$0, 120(%rbx)
.L330:
	movl	16(%rbx), %edx
.L231:
	xorl	%eax, %eax
	movl	$.LC19, %esi
	movl	$1, %edi
	call	__printf_chk
	xorpd	%xmm5, %xmm5
	movsd	1016(%rbx), %xmm0
	ucomisd	%xmm5, %xmm0
	jbe	.L319
	mulsd	(%rsp), %xmm0
.L236:
	unpcklpd	%xmm0, %xmm0
	cvtpd2ps	%xmm0, %xmm1
	unpcklps	%xmm1, %xmm1
	cvtps2pd	%xmm1, %xmm1
	ucomisd	.LC16(%rip), %xmm1
	jbe	.L237
	movsd	.LC6(%rip), %xmm0
	mulsd	160(%rbx), %xmm0
	ucomisd	%xmm1, %xmm0
	ja	.L337
.L237:
	movl	$0, 180(%rbx)
.L240:
	movl	176(%rbx), %edx
	xorl	%eax, %eax
	movl	$.LC18, %esi
	movl	$1, %edi
	call	__printf_chk
	movl	280(%rbx), %eax
	testl	%eax, %eax
	je	.L331
	cmpl	$1, %eax
	je	.L243
	cmpl	$4, %eax
	je	.L245
	movl	176(%rbx), %edx
.L246:
	movl	$0, 280(%rbx)
	jmp	.L244
	.p2align 4,,10
	.p2align 3
.L243:
	movl	$0, 280(%rbx)
.L331:
	movl	176(%rbx), %edx
.L244:
	xorl	%eax, %eax
	movl	$.LC19, %esi
	movl	$1, %edi
	call	__printf_chk
	xorpd	%xmm6, %xmm6
	movsd	1024(%rbx), %xmm0
	ucomisd	%xmm6, %xmm0
	jbe	.L321
	mulsd	(%rsp), %xmm0
.L249:
	unpcklpd	%xmm0, %xmm0
	cvtpd2ps	%xmm0, %xmm1
	unpcklps	%xmm1, %xmm1
	cvtps2pd	%xmm1, %xmm1
	ucomisd	.LC16(%rip), %xmm1
	ja	.L338
.L250:
	movl	$0, 340(%rbx)
.L253:
	movl	336(%rbx), %edx
	xorl	%eax, %eax
	movl	$.LC18, %esi
	movl	$1, %edi
	call	__printf_chk
	movl	440(%rbx), %eax
	testl	%eax, %eax
	je	.L332
	cmpl	$1, %eax
	je	.L256
	cmpl	$4, %eax
	je	.L258
	movl	336(%rbx), %edx
.L259:
	movl	$0, 440(%rbx)
	jmp	.L257
	.p2align 4,,10
	.p2align 3
.L256:
	movl	$0, 440(%rbx)
.L332:
	movl	336(%rbx), %edx
.L257:
	xorl	%eax, %eax
	movl	$.LC19, %esi
	movl	$1, %edi
	call	__printf_chk
	xorpd	%xmm7, %xmm7
	movsd	1032(%rbx), %xmm0
	ucomisd	%xmm7, %xmm0
	jbe	.L323
	mulsd	(%rsp), %xmm0
.L262:
	unpcklpd	%xmm0, %xmm0
	cvtpd2ps	%xmm0, %xmm1
	unpcklps	%xmm1, %xmm1
	cvtps2pd	%xmm1, %xmm1
	ucomisd	.LC16(%rip), %xmm1
	ja	.L339
.L263:
	movl	$0, 500(%rbx)
.L266:
	movl	496(%rbx), %edx
	xorl	%eax, %eax
	movl	$.LC18, %esi
	movl	$1, %edi
	call	__printf_chk
	movl	600(%rbx), %eax
	testl	%eax, %eax
	je	.L333
	cmpl	$1, %eax
	je	.L269
	cmpl	$4, %eax
	je	.L271
	movl	496(%rbx), %edx
.L272:
	movl	$0, 600(%rbx)
	jmp	.L270
	.p2align 4,,10
	.p2align 3
.L269:
	movl	$0, 600(%rbx)
.L333:
	movl	496(%rbx), %edx
.L270:
	xorl	%eax, %eax
	movl	$.LC19, %esi
	movl	$1, %edi
	call	__printf_chk
	xorpd	%xmm2, %xmm2
	movsd	1040(%rbx), %xmm0
	ucomisd	%xmm2, %xmm0
	jbe	.L325
	mulsd	(%rsp), %xmm0
.L275:
	unpcklpd	%xmm0, %xmm0
	cvtpd2ps	%xmm0, %xmm1
	unpcklps	%xmm1, %xmm1
	cvtps2pd	%xmm1, %xmm1
	ucomisd	.LC16(%rip), %xmm1
	ja	.L340
.L276:
	movl	$0, 660(%rbx)
.L279:
	movl	656(%rbx), %edx
	xorl	%eax, %eax
	movl	$.LC18, %esi
	movl	$1, %edi
	call	__printf_chk
	movl	760(%rbx), %eax
	testl	%eax, %eax
	je	.L334
	cmpl	$1, %eax
	je	.L282
	cmpl	$4, %eax
	je	.L284
	movl	656(%rbx), %edx
.L285:
	movl	$0, 760(%rbx)
	jmp	.L283
	.p2align 4,,10
	.p2align 3
.L282:
	movl	$0, 760(%rbx)
.L334:
	movl	656(%rbx), %edx
.L283:
	xorl	%eax, %eax
	movl	$.LC19, %esi
	movl	$1, %edi
	call	__printf_chk
	xorpd	%xmm5, %xmm5
	movsd	1048(%rbx), %xmm1
	ucomisd	%xmm5, %xmm1
	jbe	.L327
	mulsd	(%rsp), %xmm1
.L288:
	unpcklpd	%xmm1, %xmm1
	cvtpd2ps	%xmm1, %xmm1
	unpcklps	%xmm1, %xmm1
	cvtps2pd	%xmm1, %xmm1
	ucomisd	.LC16(%rip), %xmm1
	ja	.L341
.L289:
	movl	$0, 820(%rbx)
.L292:
	movl	816(%rbx), %edx
	xorl	%eax, %eax
	movl	$.LC18, %esi
	movl	$1, %edi
	call	__printf_chk
	movl	920(%rbx), %eax
	testl	%eax, %eax
	je	.L335
	cmpl	$1, %eax
	je	.L295
	cmpl	$4, %eax
	je	.L297
	movl	816(%rbx), %edx
.L298:
	movl	$0, 920(%rbx)
	jmp	.L296
	.p2align 4,,10
	.p2align 3
.L295:
	movl	$0, 920(%rbx)
.L335:
	movl	816(%rbx), %edx
.L296:
	addq	$16, %rsp
	.cfi_remember_state
	.cfi_def_cfa_offset 16
	movl	$.LC19, %esi
	movl	$1, %edi
	popq	%rbx
	.cfi_def_cfa_offset 8
	xorl	%eax, %eax
	jmp	__printf_chk
	.p2align 4,,10
	.p2align 3
.L339:
	.cfi_restore_state
	movsd	.LC6(%rip), %xmm0
	mulsd	480(%rbx), %xmm0
	ucomisd	%xmm1, %xmm0
	jbe	.L263
	movapd	%xmm1, %xmm0
	movsd	%xmm1, 8(%rsp)
	call	log10
	movsd	8(%rsp), %xmm1
	addsd	%xmm0, %xmm0
	movsd	.LC1(%rip), %xmm2
	divsd	480(%rbx), %xmm1
	divsd	%xmm0, %xmm2
	mulsd	.LC17(%rip), %xmm1
	movsd	%xmm2, 632(%rbx)
	cvttsd2siq	%xmm1, %rax
	movl	%eax, 500(%rbx)
	jmp	.L266
	.p2align 4,,10
	.p2align 3
.L338:
	movsd	.LC6(%rip), %xmm0
	mulsd	320(%rbx), %xmm0
	ucomisd	%xmm1, %xmm0
	jbe	.L250
	movapd	%xmm1, %xmm0
	movsd	%xmm1, 8(%rsp)
	call	log10
	movsd	8(%rsp), %xmm1
	addsd	%xmm0, %xmm0
	movsd	.LC1(%rip), %xmm2
	divsd	320(%rbx), %xmm1
	divsd	%xmm0, %xmm2
	mulsd	.LC17(%rip), %xmm1
	movsd	%xmm2, 472(%rbx)
	cvttsd2siq	%xmm1, %rax
	movl	%eax, 340(%rbx)
	jmp	.L253
	.p2align 4,,10
	.p2align 3
.L341:
	movsd	.LC6(%rip), %xmm0
	mulsd	800(%rbx), %xmm0
	ucomisd	%xmm1, %xmm0
	jbe	.L289
	movapd	%xmm1, %xmm0
	movsd	%xmm1, (%rsp)
	call	log10
	movsd	(%rsp), %xmm1
	addsd	%xmm0, %xmm0
	movsd	.LC1(%rip), %xmm2
	divsd	800(%rbx), %xmm1
	divsd	%xmm0, %xmm2
	mulsd	.LC17(%rip), %xmm1
	movsd	%xmm2, 952(%rbx)
	cvttsd2siq	%xmm1, %rax
	movl	%eax, 820(%rbx)
	jmp	.L292
	.p2align 4,,10
	.p2align 3
.L340:
	movsd	.LC6(%rip), %xmm0
	mulsd	640(%rbx), %xmm0
	ucomisd	%xmm1, %xmm0
	jbe	.L276
	movapd	%xmm1, %xmm0
	movsd	%xmm1, 8(%rsp)
	call	log10
	movsd	8(%rsp), %xmm1
	addsd	%xmm0, %xmm0
	movsd	.LC1(%rip), %xmm2
	divsd	640(%rbx), %xmm1
	divsd	%xmm0, %xmm2
	mulsd	.LC17(%rip), %xmm1
	movsd	%xmm2, 792(%rbx)
	cvttsd2siq	%xmm1, %rax
	movl	%eax, 660(%rbx)
	jmp	.L279
	.p2align 4,,10
	.p2align 3
.L327:
	movsd	840(%rbx), %xmm1
	jmp	.L288
	.p2align 4,,10
	.p2align 3
.L317:
	movsd	40(%rdi), %xmm0
	jmp	.L223
	.p2align 4,,10
	.p2align 3
.L319:
	movsd	200(%rbx), %xmm0
	jmp	.L236
	.p2align 4,,10
	.p2align 3
.L325:
	movsd	680(%rbx), %xmm0
	jmp	.L275
	.p2align 4,,10
	.p2align 3
.L323:
	movsd	520(%rbx), %xmm0
	jmp	.L262
	.p2align 4,,10
	.p2align 3
.L321:
	movsd	360(%rbx), %xmm0
	jmp	.L249
	.p2align 4,,10
	.p2align 3
.L336:
	movapd	%xmm1, %xmm0
	movsd	%xmm1, 8(%rsp)
	call	log10
	movsd	8(%rsp), %xmm1
	addsd	%xmm0, %xmm0
	movsd	.LC1(%rip), %xmm2
	divsd	(%rbx), %xmm1
	divsd	%xmm0, %xmm2
	mulsd	.LC17(%rip), %xmm1
	movsd	%xmm2, 152(%rbx)
	cvttsd2siq	%xmm1, %rax
	movl	%eax, 20(%rbx)
	jmp	.L227
	.p2align 4,,10
	.p2align 3
.L337:
	movapd	%xmm1, %xmm0
	movsd	%xmm1, 8(%rsp)
	call	log10
	movsd	8(%rsp), %xmm1
	addsd	%xmm0, %xmm0
	movsd	.LC1(%rip), %xmm2
	divsd	160(%rbx), %xmm1
	divsd	%xmm0, %xmm2
	mulsd	.LC17(%rip), %xmm1
	movsd	%xmm2, 312(%rbx)
	cvttsd2siq	%xmm1, %rax
	movl	%eax, 180(%rbx)
	jmp	.L240
	.p2align 4,,10
	.p2align 3
.L284:
	movl	$0, 656(%rbx)
	movq	$0, 664(%rbx)
	xorl	%edx, %edx
	movl	$0, 672(%rbx)
	jmp	.L285
	.p2align 4,,10
	.p2align 3
.L258:
	movl	$0, 336(%rbx)
	movq	$0, 344(%rbx)
	xorl	%edx, %edx
	movl	$0, 352(%rbx)
	jmp	.L259
	.p2align 4,,10
	.p2align 3
.L297:
	movl	$0, 816(%rbx)
	movq	$0, 824(%rbx)
	xorl	%edx, %edx
	movl	$0, 832(%rbx)
	jmp	.L298
	.p2align 4,,10
	.p2align 3
.L232:
	movl	$0, 16(%rbx)
	movq	$0, 24(%rbx)
	xorl	%edx, %edx
	movl	$0, 32(%rbx)
	jmp	.L233
	.p2align 4,,10
	.p2align 3
.L271:
	movl	$0, 496(%rbx)
	movq	$0, 504(%rbx)
	xorl	%edx, %edx
	movl	$0, 512(%rbx)
	jmp	.L272
	.p2align 4,,10
	.p2align 3
.L245:
	movl	$0, 176(%rbx)
	movq	$0, 184(%rbx)
	xorl	%edx, %edx
	movl	$0, 192(%rbx)
	jmp	.L246
	.cfi_endproc
.LFE46:
	.size	fmv_keyon, .-fmv_keyon
	.section	.rodata.str1.1
.LC20:
	.string	"Key On voice[%d]\n"
	.text
	.p2align 4,,15
	.globl	fmc_keyon
	.type	fmc_keyon, @function
fmc_keyon:
.LFB30:
	.cfi_startproc
	pushq	%r14
	.cfi_def_cfa_offset 16
	.cfi_offset 14, -16
	cmpl	$126, %esi
	pushq	%r13
	.cfi_def_cfa_offset 24
	.cfi_offset 13, -24
	pushq	%r12
	.cfi_def_cfa_offset 32
	.cfi_offset 12, -32
	pushq	%rbp
	.cfi_def_cfa_offset 40
	.cfi_offset 6, -40
	movl	%esi, %ebp
	pushq	%rbx
	.cfi_def_cfa_offset 48
	.cfi_offset 3, -48
	ja	.L342
	movl	%edx, %eax
	movq	%rdi, %r12
	sarl	$31, %eax
	shrl	$25, %eax
	leal	(%rdx,%rax), %esi
	andl	$127, %esi
	subl	%eax, %esi
	movl	%esi, %r13d
	je	.L368
	movl	41632(%rdi), %r10d
	movslq	%ebp, %r14
	movb	%sil, (%r12,%r14)
	testl	%r10d, %r10d
	jle	.L342
	movq	$-1, %rbx
	xorl	%ecx, %ecx
	movl	%ebx, %r8d
	jmp	.L359
	.p2align 4,,10
	.p2align 3
.L356:
	cmpl	$-1, %ebx
	je	.L369
.L357:
	addq	$1, %rcx
	cmpl	%ecx, %r10d
	jle	.L370
.L359:
	cmpl	$-1, %r8d
	movslq	%ecx, %r9
	jne	.L356
	cmpb	$-1, 128(%r12,%rcx)
	cmove	%ecx, %r8d
	cmpl	$-1, %ebx
	jne	.L357
.L369:
	movsbl	128(%r12,%rcx), %eax
	cmpl	%eax, %ebp
	cmove	%r9, %rbx
	addq	$1, %rcx
	cmpl	%ecx, %r10d
	jg	.L359
.L370:
	cmpl	$-1, %ebx
	jne	.L360
	cmpl	$-1, %r8d
	je	.L342
	movslq	%r8d, %rax
	movslq	%r8d, %rbx
	movb	%bpl, 128(%r12,%rax)
.L360:
	movl	%ebx, %edx
	movl	$.LC20, %esi
	movl	$1, %edi
	xorl	%eax, %eax
	call	__printf_chk
	movl	%ebp, %eax
	movl	$715827883, %edx
	movsd	freqTable(,%r14,8), %xmm0
	imull	%edx
	leaq	(%rbx,%rbx,8), %rax
	sarl	$31, %ebp
	popq	%rbx
	.cfi_remember_state
	.cfi_def_cfa_offset 40
	leaq	(%rax,%rax,8), %rax
	movl	%r13d, %esi
	sarl	%edx
	cvtpd2ps	%xmm0, %xmm0
	subl	%ebp, %edx
	salq	$4, %rax
	popq	%rbp
	.cfi_def_cfa_offset 32
	leaq	160(%r12,%rax), %rdi
	popq	%r12
	.cfi_def_cfa_offset 24
	popq	%r13
	.cfi_def_cfa_offset 16
	popq	%r14
	.cfi_def_cfa_offset 8
	jmp	fmv_keyon
.L371:
	.cfi_restore_state
	xorl	%eax, %eax
.L347:
	cltq
	movb	$-1, 128(%r12,%rax)
	leaq	(%rax,%rax,8), %rax
	leaq	(%rax,%rax,8), %rax
	salq	$4, %rax
	leaq	160(%r12,%rax), %rax
	cmpl	$4, 120(%rax)
	je	.L350
	movl	$3, 120(%rax)
.L350:
	cmpl	$4, 280(%rax)
	je	.L351
	movl	$3, 280(%rax)
.L351:
	cmpl	$4, 440(%rax)
	je	.L352
	movl	$3, 440(%rax)
.L352:
	cmpl	$4, 600(%rax)
	je	.L353
	movl	$3, 600(%rax)
.L353:
	cmpl	$4, 760(%rax)
	je	.L354
	movl	$3, 760(%rax)
.L354:
	cmpl	$4, 920(%rax)
	je	.L342
	movl	$3, 920(%rax)
	.p2align 4,,10
	.p2align 3
.L342:
	popq	%rbx
	.cfi_remember_state
	.cfi_def_cfa_offset 40
	popq	%rbp
	.cfi_def_cfa_offset 32
	popq	%r12
	.cfi_def_cfa_offset 24
	popq	%r13
	.cfi_def_cfa_offset 16
	popq	%r14
	.cfi_def_cfa_offset 8
	ret
	.p2align 4,,10
	.p2align 3
.L368:
	.cfi_restore_state
	movl	41632(%rdi), %esi
	testl	%esi, %esi
	jle	.L342
	movsbl	128(%rdi), %eax
	cmpl	%eax, %ebp
	je	.L371
	leaq	129(%rdi), %rdx
	xorl	%eax, %eax
	jmp	.L349
	.p2align 4,,10
	.p2align 3
.L355:
	movsbl	(%rdx), %ecx
	addq	$1, %rdx
	cmpl	%ecx, %ebp
	je	.L347
.L349:
	addl	$1, %eax
	cmpl	%esi, %eax
	jne	.L355
	jmp	.L342
	.cfi_endproc
.LFE30:
	.size	fmc_keyon, .-fmc_keyon
	.p2align 4,,15
	.globl	fmv_setfreq
	.type	fmv_setfreq, @function
fmv_setfreq:
.LFB47:
	.cfi_startproc
	pushq	%rbx
	.cfi_def_cfa_offset 16
	.cfi_offset 3, -16
	xorpd	%xmm2, %xmm2
	movq	%rdi, %rbx
	movapd	%xmm0, %xmm3
	subq	$32, %rsp
	.cfi_def_cfa_offset 48
	movsd	%xmm0, 1288(%rbx)
	movsd	1008(%rdi), %xmm0
	ucomisd	%xmm2, %xmm0
	jbe	.L433
	movapd	%xmm0, %xmm4
	mulsd	%xmm3, %xmm4
.L375:
	movsd	.LC16(%rip), %xmm1
	ucomisd	%xmm1, %xmm4
	jbe	.L376
	movsd	.LC6(%rip), %xmm0
	mulsd	(%rbx), %xmm0
	ucomisd	%xmm4, %xmm0
	ja	.L440
.L376:
	movl	$0, 20(%rbx)
.L379:
	movsd	1016(%rbx), %xmm0
	ucomisd	%xmm2, %xmm0
	jbe	.L434
	movapd	%xmm0, %xmm4
	mulsd	%xmm3, %xmm4
.L382:
	ucomisd	%xmm1, %xmm4
	jbe	.L383
	movsd	.LC6(%rip), %xmm0
	mulsd	160(%rbx), %xmm0
	ucomisd	%xmm4, %xmm0
	ja	.L441
.L383:
	movl	$0, 180(%rbx)
.L386:
	movsd	1024(%rbx), %xmm0
	ucomisd	%xmm2, %xmm0
	jbe	.L435
	movapd	%xmm0, %xmm4
	mulsd	%xmm3, %xmm4
.L389:
	ucomisd	%xmm1, %xmm4
	jbe	.L390
	movsd	.LC6(%rip), %xmm0
	mulsd	320(%rbx), %xmm0
	ucomisd	%xmm4, %xmm0
	ja	.L442
.L390:
	movl	$0, 340(%rbx)
.L393:
	movsd	1032(%rbx), %xmm0
	ucomisd	%xmm2, %xmm0
	jbe	.L436
	movapd	%xmm0, %xmm4
	mulsd	%xmm3, %xmm4
.L396:
	ucomisd	%xmm1, %xmm4
	jbe	.L397
	movsd	.LC6(%rip), %xmm0
	mulsd	480(%rbx), %xmm0
	ucomisd	%xmm4, %xmm0
	ja	.L443
.L397:
	movl	$0, 500(%rbx)
.L400:
	movsd	1040(%rbx), %xmm0
	ucomisd	%xmm2, %xmm0
	jbe	.L437
	movapd	%xmm0, %xmm4
	mulsd	%xmm3, %xmm4
.L403:
	ucomisd	%xmm1, %xmm4
	jbe	.L404
	movsd	.LC6(%rip), %xmm0
	mulsd	640(%rbx), %xmm0
	ucomisd	%xmm4, %xmm0
	ja	.L444
.L404:
	movl	$0, 660(%rbx)
.L407:
	movsd	1048(%rbx), %xmm0
	ucomisd	%xmm2, %xmm0
	jbe	.L438
	mulsd	%xmm0, %xmm3
.L410:
	ucomisd	%xmm1, %xmm3
	jbe	.L411
	movsd	.LC6(%rip), %xmm0
	mulsd	800(%rbx), %xmm0
	ucomisd	%xmm3, %xmm0
	ja	.L445
.L411:
	movl	$0, 820(%rbx)
	addq	$32, %rsp
	.cfi_remember_state
	.cfi_def_cfa_offset 16
	popq	%rbx
	.cfi_def_cfa_offset 8
	ret
	.p2align 4,,10
	.p2align 3
.L438:
	.cfi_restore_state
	movsd	840(%rbx), %xmm3
	jmp	.L410
	.p2align 4,,10
	.p2align 3
.L437:
	movsd	680(%rbx), %xmm4
	jmp	.L403
	.p2align 4,,10
	.p2align 3
.L434:
	movsd	200(%rbx), %xmm4
	jmp	.L382
	.p2align 4,,10
	.p2align 3
.L433:
	movsd	40(%rdi), %xmm4
	jmp	.L375
	.p2align 4,,10
	.p2align 3
.L436:
	movsd	520(%rbx), %xmm4
	jmp	.L396
	.p2align 4,,10
	.p2align 3
.L435:
	movsd	360(%rbx), %xmm4
	jmp	.L389
	.p2align 4,,10
	.p2align 3
.L445:
	movapd	%xmm3, %xmm0
	movsd	%xmm3, (%rsp)
	call	log10
	movsd	(%rsp), %xmm3
	addsd	%xmm0, %xmm0
	movsd	.LC1(%rip), %xmm1
	divsd	800(%rbx), %xmm3
	divsd	%xmm0, %xmm1
	mulsd	.LC17(%rip), %xmm3
	movsd	%xmm1, 952(%rbx)
	cvttsd2siq	%xmm3, %rax
	movl	%eax, 820(%rbx)
	addq	$32, %rsp
	.cfi_remember_state
	.cfi_def_cfa_offset 16
	popq	%rbx
	.cfi_def_cfa_offset 8
	ret
	.p2align 4,,10
	.p2align 3
.L440:
	.cfi_restore_state
	movapd	%xmm4, %xmm0
	movsd	%xmm2, 24(%rsp)
	movsd	%xmm1, 16(%rsp)
	movsd	%xmm3, 8(%rsp)
	movsd	%xmm4, (%rsp)
	call	log10
	movsd	(%rsp), %xmm4
	addsd	%xmm0, %xmm0
	movsd	.LC1(%rip), %xmm5
	divsd	(%rbx), %xmm4
	divsd	%xmm0, %xmm5
	mulsd	.LC17(%rip), %xmm4
	movsd	8(%rsp), %xmm3
	movsd	16(%rsp), %xmm1
	movsd	%xmm5, 152(%rbx)
	movsd	24(%rsp), %xmm2
	cvttsd2siq	%xmm4, %rax
	movl	%eax, 20(%rbx)
	jmp	.L379
	.p2align 4,,10
	.p2align 3
.L441:
	movapd	%xmm4, %xmm0
	movsd	%xmm2, 24(%rsp)
	movsd	%xmm1, 16(%rsp)
	movsd	%xmm3, 8(%rsp)
	movsd	%xmm4, (%rsp)
	call	log10
	movsd	(%rsp), %xmm4
	addsd	%xmm0, %xmm0
	movsd	.LC1(%rip), %xmm5
	divsd	160(%rbx), %xmm4
	divsd	%xmm0, %xmm5
	mulsd	.LC17(%rip), %xmm4
	movsd	8(%rsp), %xmm3
	movsd	16(%rsp), %xmm1
	movsd	%xmm5, 312(%rbx)
	movsd	24(%rsp), %xmm2
	cvttsd2siq	%xmm4, %rax
	movl	%eax, 180(%rbx)
	jmp	.L386
	.p2align 4,,10
	.p2align 3
.L442:
	movapd	%xmm4, %xmm0
	movsd	%xmm2, 24(%rsp)
	movsd	%xmm1, 16(%rsp)
	movsd	%xmm3, 8(%rsp)
	movsd	%xmm4, (%rsp)
	call	log10
	movsd	(%rsp), %xmm4
	addsd	%xmm0, %xmm0
	movsd	.LC1(%rip), %xmm5
	divsd	320(%rbx), %xmm4
	divsd	%xmm0, %xmm5
	mulsd	.LC17(%rip), %xmm4
	movsd	8(%rsp), %xmm3
	movsd	16(%rsp), %xmm1
	movsd	%xmm5, 472(%rbx)
	movsd	24(%rsp), %xmm2
	cvttsd2siq	%xmm4, %rax
	movl	%eax, 340(%rbx)
	jmp	.L393
	.p2align 4,,10
	.p2align 3
.L443:
	movapd	%xmm4, %xmm0
	movsd	%xmm2, 24(%rsp)
	movsd	%xmm1, 16(%rsp)
	movsd	%xmm3, 8(%rsp)
	movsd	%xmm4, (%rsp)
	call	log10
	movsd	(%rsp), %xmm4
	addsd	%xmm0, %xmm0
	movsd	.LC1(%rip), %xmm5
	divsd	480(%rbx), %xmm4
	divsd	%xmm0, %xmm5
	mulsd	.LC17(%rip), %xmm4
	movsd	8(%rsp), %xmm3
	movsd	16(%rsp), %xmm1
	movsd	%xmm5, 632(%rbx)
	movsd	24(%rsp), %xmm2
	cvttsd2siq	%xmm4, %rax
	movl	%eax, 500(%rbx)
	jmp	.L400
	.p2align 4,,10
	.p2align 3
.L444:
	movapd	%xmm4, %xmm0
	movsd	%xmm2, 24(%rsp)
	movsd	%xmm1, 16(%rsp)
	movsd	%xmm3, 8(%rsp)
	movsd	%xmm4, (%rsp)
	call	log10
	movsd	(%rsp), %xmm4
	addsd	%xmm0, %xmm0
	movsd	.LC1(%rip), %xmm5
	divsd	640(%rbx), %xmm4
	divsd	%xmm0, %xmm5
	mulsd	.LC17(%rip), %xmm4
	movsd	8(%rsp), %xmm3
	movsd	16(%rsp), %xmm1
	movsd	%xmm5, 792(%rbx)
	movsd	24(%rsp), %xmm2
	cvttsd2siq	%xmm4, %rax
	movl	%eax, 660(%rbx)
	jmp	.L407
	.cfi_endproc
.LFE47:
	.size	fmv_setfreq, .-fmv_setfreq
	.p2align 4,,15
	.globl	fmv_keyoff
	.type	fmv_keyoff, @function
fmv_keyoff:
.LFB48:
	.cfi_startproc
	cmpl	$4, 120(%rdi)
	je	.L447
	movl	$3, 120(%rdi)
.L447:
	cmpl	$4, 280(%rdi)
	je	.L448
	movl	$3, 280(%rdi)
.L448:
	cmpl	$4, 440(%rdi)
	je	.L449
	movl	$3, 440(%rdi)
.L449:
	cmpl	$4, 600(%rdi)
	je	.L450
	movl	$3, 600(%rdi)
.L450:
	cmpl	$4, 760(%rdi)
	je	.L451
	movl	$3, 760(%rdi)
.L451:
	cmpl	$4, 920(%rdi)
	je	.L446
	movl	$3, 920(%rdi)
.L446:
	rep ret
	.cfi_endproc
.LFE48:
	.size	fmv_keyoff, .-fmv_keyoff
	.p2align 4,,15
	.globl	fmv_init
	.type	fmv_init, @function
fmv_init:
.LFB49:
	.cfi_startproc
	movsd	.LC7(%rip), %xmm6
	movq	%rsi, 1280(%rdi)
	movsd	.LC10(%rip), %xmm4
	movl	$0, 1264(%rdi)
	xorpd	%xmm0, %xmm0
	movsd	%xmm6, 1024(%rdi)
	movsd	.LC1(%rip), %xmm2
	movq	%rsi, 144(%rdi)
	movsd	16(%rsi), %xmm6
	movsd	.LC6(%rip), %xmm5
	movsd	.LC8(%rip), %xmm3
	movsd	.LC9(%rip), %xmm7
	movsd	%xmm4, 1048(%rdi)
	movsd	8(%rsi), %xmm4
	movl	$0, 16(%rdi)
	movsd	%xmm0, 1272(%rdi)
	movsd	%xmm0, 1288(%rdi)
	movsd	%xmm5, 1008(%rdi)
	movsd	%xmm3, 1032(%rdi)
	movsd	%xmm7, 1040(%rdi)
	movsd	%xmm0, 1248(%rdi)
	movsd	%xmm0, 80(%rdi)
	movsd	%xmm0, 128(%rdi)
	movsd	%xmm2, 1256(%rdi)
	movsd	%xmm2, 960(%rdi)
	movsd	%xmm2, 968(%rdi)
	movsd	%xmm2, 976(%rdi)
	movsd	%xmm2, 984(%rdi)
	movsd	%xmm2, 992(%rdi)
	movsd	%xmm2, 1000(%rdi)
	movsd	%xmm2, 1016(%rdi)
	movsd	%xmm4, (%rdi)
	movsd	%xmm6, 8(%rdi)
	movsd	%xmm2, 72(%rdi)
	movl	$0, 20(%rdi)
	movsd	%xmm0, 152(%rdi)
	movl	$0, 136(%rdi)
	movsd	%xmm0, 24(%rdi)
	movl	$4, 120(%rdi)
	movsd	.LC4(%rip), %xmm3
	movsd	env_curve+4096(%rip), %xmm1
	divsd	%xmm4, %xmm3
	movsd	%xmm0, 240(%rdi)
	movl	$0, 32(%rdi)
	movsd	%xmm1, 104(%rdi)
	movl	$0, 140(%rdi)
	movq	%rsi, 304(%rdi)
	movsd	%xmm0, 288(%rdi)
	movl	$0, 176(%rdi)
	movsd	%xmm0, 312(%rdi)
	movl	$0, 180(%rdi)
	movsd	%xmm0, 184(%rdi)
	movl	$0, 296(%rdi)
	movsd	%xmm4, 160(%rdi)
	movl	$4, 280(%rdi)
	movsd	%xmm6, 168(%rdi)
	movl	$0, 192(%rdi)
	movsd	%xmm2, 232(%rdi)
	movsd	.LC5(%rip), %xmm1
	movsd	.LC11(%rip), %xmm5
	divsd	%xmm4, %xmm1
	movsd	%xmm3, 88(%rdi)
	movsd	%xmm5, 40(%rdi)
	movsd	%xmm1, 96(%rdi)
	movsd	%xmm1, 112(%rdi)
	movsd	env_curve+4096(%rip), %xmm7
	movsd	%xmm3, 248(%rdi)
	movsd	%xmm7, 264(%rdi)
	movsd	%xmm1, 256(%rdi)
	movsd	%xmm1, 272(%rdi)
	movl	$0, 300(%rdi)
	movsd	%xmm0, 400(%rdi)
	movq	%rsi, 464(%rdi)
	movsd	%xmm0, 448(%rdi)
	movl	$0, 336(%rdi)
	movsd	%xmm0, 472(%rdi)
	movl	$0, 340(%rdi)
	movsd	%xmm0, 344(%rdi)
	movl	$0, 456(%rdi)
	movsd	%xmm5, 200(%rdi)
	movl	$4, 440(%rdi)
	movsd	%xmm4, 320(%rdi)
	movl	$0, 352(%rdi)
	movsd	%xmm6, 328(%rdi)
	movsd	%xmm2, 392(%rdi)
	movsd	env_curve+4096(%rip), %xmm7
	movsd	%xmm0, 560(%rdi)
	movl	$0, 460(%rdi)
	movq	%rsi, 624(%rdi)
	movsd	%xmm7, 424(%rdi)
	movl	$0, 496(%rdi)
	movl	$0, 500(%rdi)
	movsd	%xmm0, 608(%rdi)
	movl	$0, 616(%rdi)
	movsd	%xmm0, 632(%rdi)
	movl	$4, 600(%rdi)
	movsd	%xmm0, 504(%rdi)
	movsd	%xmm3, 408(%rdi)
	movsd	%xmm1, 416(%rdi)
	movsd	%xmm1, 432(%rdi)
	movsd	%xmm5, 360(%rdi)
	movsd	%xmm4, 480(%rdi)
	movsd	%xmm6, 488(%rdi)
	movsd	%xmm2, 552(%rdi)
	movl	$0, 512(%rdi)
	movsd	env_curve+4096(%rip), %xmm7
	movsd	%xmm0, 720(%rdi)
	movl	$0, 620(%rdi)
	movsd	%xmm0, 768(%rdi)
	movq	%rsi, 784(%rdi)
	movl	$0, 656(%rdi)
	movsd	%xmm0, 792(%rdi)
	movl	$0, 660(%rdi)
	movsd	%xmm0, 664(%rdi)
	movl	$0, 776(%rdi)
	movsd	%xmm7, 584(%rdi)
	movl	$4, 760(%rdi)
	movsd	%xmm3, 568(%rdi)
	movl	$0, 672(%rdi)
	movsd	%xmm1, 576(%rdi)
	movsd	%xmm1, 592(%rdi)
	movsd	%xmm5, 520(%rdi)
	movsd	%xmm4, 640(%rdi)
	movsd	%xmm6, 648(%rdi)
	movsd	%xmm2, 712(%rdi)
	movsd	env_curve+4096(%rip), %xmm7
	movsd	%xmm0, 880(%rdi)
	movl	$0, 780(%rdi)
	movq	%rsi, 944(%rdi)
	movsd	%xmm0, 928(%rdi)
	movsd	%xmm7, 744(%rdi)
	movsd	%xmm3, 728(%rdi)
	movsd	%xmm1, 736(%rdi)
	movsd	%xmm1, 752(%rdi)
	movsd	%xmm5, 680(%rdi)
	movsd	%xmm4, 800(%rdi)
	movsd	%xmm6, 808(%rdi)
	movsd	%xmm2, 872(%rdi)
	movl	$0, 816(%rdi)
	movsd	%xmm0, 952(%rdi)
	movl	$0, 820(%rdi)
	movsd	%xmm0, 824(%rdi)
	movl	$0, 936(%rdi)
	movl	$4, 920(%rdi)
	movsd	env_curve+4096(%rip), %xmm0
	movl	$0, 832(%rdi)
	movsd	%xmm3, 888(%rdi)
	movl	$0, 940(%rdi)
	movsd	%xmm0, 904(%rdi)
	movsd	%xmm1, 896(%rdi)
	movsd	%xmm1, 912(%rdi)
	movsd	%xmm5, 840(%rdi)
	ret
	.cfi_endproc
.LFE49:
	.size	fmv_init, .-fmv_init
	.p2align 4,,15
	.globl	fmv_setmode
	.type	fmv_setmode, @function
fmv_setmode:
.LFB50:
	.cfi_startproc
	movl	%esi, %eax
	movl	$818089009, %edx
	movq	$0, 1272(%rdi)
	imull	%edx
	movl	%esi, %eax
	sarl	$31, %eax
	sarl	$2, %edx
	subl	%eax, %edx
	leal	(%rdx,%rdx,4), %eax
	leal	(%rdx,%rax,4), %eax
	subl	%eax, %esi
	movl	%esi, 1264(%rdi)
	ret
	.cfi_endproc
.LFE50:
	.size	fmv_setmode, .-fmv_setmode
	.p2align 4,,15
	.globl	fmv_opvol
	.type	fmv_opvol, @function
fmv_opvol:
.LFB51:
	.cfi_startproc
	movslq	%esi, %rsi
	movsd	%xmm0, 960(%rdi,%rsi,8)
	ret
	.cfi_endproc
.LFE51:
	.size	fmv_opvol, .-fmv_opvol
	.p2align 4,,15
	.globl	fmv_opmul
	.type	fmv_opmul, @function
fmv_opmul:
.LFB52:
	.cfi_startproc
	pushq	%rbx
	.cfi_def_cfa_offset 16
	.cfi_offset 3, -16
	movslq	%esi, %rsi
	movq	%rdi, %rbx
	xorpd	%xmm2, %xmm2
	subq	$32, %rsp
	.cfi_def_cfa_offset 48
	movsd	%xmm0, 1008(%rdi,%rsi,8)
	movsd	1288(%rdi), %xmm3
	movsd	1008(%rdi), %xmm0
	ucomisd	%xmm2, %xmm0
	jbe	.L517
	movapd	%xmm0, %xmm4
	mulsd	%xmm3, %xmm4
.L459:
	movsd	.LC16(%rip), %xmm1
	ucomisd	%xmm1, %xmm4
	jbe	.L460
	movsd	.LC6(%rip), %xmm0
	mulsd	(%rbx), %xmm0
	ucomisd	%xmm4, %xmm0
	ja	.L524
.L460:
	movl	$0, 20(%rbx)
.L463:
	movsd	1016(%rbx), %xmm0
	ucomisd	%xmm2, %xmm0
	jbe	.L518
	movapd	%xmm0, %xmm4
	mulsd	%xmm3, %xmm4
.L466:
	ucomisd	%xmm1, %xmm4
	jbe	.L467
	movsd	.LC6(%rip), %xmm0
	mulsd	160(%rbx), %xmm0
	ucomisd	%xmm4, %xmm0
	ja	.L525
.L467:
	movl	$0, 180(%rbx)
.L470:
	movsd	1024(%rbx), %xmm0
	ucomisd	%xmm2, %xmm0
	jbe	.L519
	movapd	%xmm0, %xmm4
	mulsd	%xmm3, %xmm4
.L473:
	ucomisd	%xmm1, %xmm4
	jbe	.L474
	movsd	.LC6(%rip), %xmm0
	mulsd	320(%rbx), %xmm0
	ucomisd	%xmm4, %xmm0
	ja	.L526
.L474:
	movl	$0, 340(%rbx)
.L477:
	movsd	1032(%rbx), %xmm0
	ucomisd	%xmm2, %xmm0
	jbe	.L520
	movapd	%xmm0, %xmm4
	mulsd	%xmm3, %xmm4
.L480:
	ucomisd	%xmm1, %xmm4
	jbe	.L481
	movsd	.LC6(%rip), %xmm0
	mulsd	480(%rbx), %xmm0
	ucomisd	%xmm4, %xmm0
	ja	.L527
.L481:
	movl	$0, 500(%rbx)
.L484:
	movsd	1040(%rbx), %xmm0
	ucomisd	%xmm2, %xmm0
	jbe	.L521
	movapd	%xmm0, %xmm4
	mulsd	%xmm3, %xmm4
.L487:
	ucomisd	%xmm1, %xmm4
	jbe	.L488
	movsd	.LC6(%rip), %xmm0
	mulsd	640(%rbx), %xmm0
	ucomisd	%xmm4, %xmm0
	ja	.L528
.L488:
	movl	$0, 660(%rbx)
.L491:
	movsd	1048(%rbx), %xmm0
	ucomisd	%xmm2, %xmm0
	jbe	.L522
	mulsd	%xmm0, %xmm3
.L494:
	ucomisd	%xmm1, %xmm3
	jbe	.L495
	movsd	.LC6(%rip), %xmm0
	mulsd	800(%rbx), %xmm0
	ucomisd	%xmm3, %xmm0
	ja	.L529
.L495:
	movl	$0, 820(%rbx)
	addq	$32, %rsp
	.cfi_remember_state
	.cfi_def_cfa_offset 16
	popq	%rbx
	.cfi_def_cfa_offset 8
	ret
	.p2align 4,,10
	.p2align 3
.L522:
	.cfi_restore_state
	movsd	840(%rbx), %xmm3
	jmp	.L494
	.p2align 4,,10
	.p2align 3
.L521:
	movsd	680(%rbx), %xmm4
	jmp	.L487
	.p2align 4,,10
	.p2align 3
.L518:
	movsd	200(%rbx), %xmm4
	jmp	.L466
	.p2align 4,,10
	.p2align 3
.L517:
	movsd	40(%rdi), %xmm4
	jmp	.L459
	.p2align 4,,10
	.p2align 3
.L520:
	movsd	520(%rbx), %xmm4
	jmp	.L480
	.p2align 4,,10
	.p2align 3
.L519:
	movsd	360(%rbx), %xmm4
	jmp	.L473
	.p2align 4,,10
	.p2align 3
.L529:
	movapd	%xmm3, %xmm0
	movsd	%xmm3, (%rsp)
	call	log10
	movsd	(%rsp), %xmm3
	addsd	%xmm0, %xmm0
	movsd	.LC1(%rip), %xmm1
	divsd	800(%rbx), %xmm3
	divsd	%xmm0, %xmm1
	mulsd	.LC17(%rip), %xmm3
	movsd	%xmm1, 952(%rbx)
	cvttsd2siq	%xmm3, %rax
	movl	%eax, 820(%rbx)
	addq	$32, %rsp
	.cfi_remember_state
	.cfi_def_cfa_offset 16
	popq	%rbx
	.cfi_def_cfa_offset 8
	ret
	.p2align 4,,10
	.p2align 3
.L524:
	.cfi_restore_state
	movapd	%xmm4, %xmm0
	movsd	%xmm2, 24(%rsp)
	movsd	%xmm1, 16(%rsp)
	movsd	%xmm3, 8(%rsp)
	movsd	%xmm4, (%rsp)
	call	log10
	movsd	(%rsp), %xmm4
	addsd	%xmm0, %xmm0
	movsd	.LC1(%rip), %xmm5
	divsd	(%rbx), %xmm4
	divsd	%xmm0, %xmm5
	mulsd	.LC17(%rip), %xmm4
	movsd	8(%rsp), %xmm3
	movsd	16(%rsp), %xmm1
	movsd	%xmm5, 152(%rbx)
	movsd	24(%rsp), %xmm2
	cvttsd2siq	%xmm4, %rax
	movl	%eax, 20(%rbx)
	jmp	.L463
	.p2align 4,,10
	.p2align 3
.L525:
	movapd	%xmm4, %xmm0
	movsd	%xmm2, 24(%rsp)
	movsd	%xmm1, 16(%rsp)
	movsd	%xmm3, 8(%rsp)
	movsd	%xmm4, (%rsp)
	call	log10
	movsd	(%rsp), %xmm4
	addsd	%xmm0, %xmm0
	movsd	.LC1(%rip), %xmm5
	divsd	160(%rbx), %xmm4
	divsd	%xmm0, %xmm5
	mulsd	.LC17(%rip), %xmm4
	movsd	8(%rsp), %xmm3
	movsd	16(%rsp), %xmm1
	movsd	%xmm5, 312(%rbx)
	movsd	24(%rsp), %xmm2
	cvttsd2siq	%xmm4, %rax
	movl	%eax, 180(%rbx)
	jmp	.L470
	.p2align 4,,10
	.p2align 3
.L526:
	movapd	%xmm4, %xmm0
	movsd	%xmm2, 24(%rsp)
	movsd	%xmm1, 16(%rsp)
	movsd	%xmm3, 8(%rsp)
	movsd	%xmm4, (%rsp)
	call	log10
	movsd	(%rsp), %xmm4
	addsd	%xmm0, %xmm0
	movsd	.LC1(%rip), %xmm5
	divsd	320(%rbx), %xmm4
	divsd	%xmm0, %xmm5
	mulsd	.LC17(%rip), %xmm4
	movsd	8(%rsp), %xmm3
	movsd	16(%rsp), %xmm1
	movsd	%xmm5, 472(%rbx)
	movsd	24(%rsp), %xmm2
	cvttsd2siq	%xmm4, %rax
	movl	%eax, 340(%rbx)
	jmp	.L477
	.p2align 4,,10
	.p2align 3
.L527:
	movapd	%xmm4, %xmm0
	movsd	%xmm2, 24(%rsp)
	movsd	%xmm1, 16(%rsp)
	movsd	%xmm3, 8(%rsp)
	movsd	%xmm4, (%rsp)
	call	log10
	movsd	(%rsp), %xmm4
	addsd	%xmm0, %xmm0
	movsd	.LC1(%rip), %xmm5
	divsd	480(%rbx), %xmm4
	divsd	%xmm0, %xmm5
	mulsd	.LC17(%rip), %xmm4
	movsd	8(%rsp), %xmm3
	movsd	16(%rsp), %xmm1
	movsd	%xmm5, 632(%rbx)
	movsd	24(%rsp), %xmm2
	cvttsd2siq	%xmm4, %rax
	movl	%eax, 500(%rbx)
	jmp	.L484
	.p2align 4,,10
	.p2align 3
.L528:
	movapd	%xmm4, %xmm0
	movsd	%xmm2, 24(%rsp)
	movsd	%xmm1, 16(%rsp)
	movsd	%xmm3, 8(%rsp)
	movsd	%xmm4, (%rsp)
	call	log10
	movsd	(%rsp), %xmm4
	addsd	%xmm0, %xmm0
	movsd	.LC1(%rip), %xmm5
	divsd	640(%rbx), %xmm4
	divsd	%xmm0, %xmm5
	mulsd	.LC17(%rip), %xmm4
	movsd	8(%rsp), %xmm3
	movsd	16(%rsp), %xmm1
	movsd	%xmm5, 792(%rbx)
	movsd	24(%rsp), %xmm2
	cvttsd2siq	%xmm4, %rax
	movl	%eax, 660(%rbx)
	jmp	.L491
	.cfi_endproc
.LFE52:
	.size	fmv_opmul, .-fmv_opmul
	.p2align 4,,15
	.globl	fmv_get
	.type	fmv_get, @function
fmv_get:
.LFB53:
	.cfi_startproc
	cmpl	$32, 1264(%rdi)
	movsd	1272(%rdi), %xmm1
	movsd	960(%rdi), %xmm5
	movsd	968(%rdi), %xmm0
	movsd	976(%rdi), %xmm6
	movsd	984(%rdi), %xmm9
	movsd	992(%rdi), %xmm7
	movsd	1000(%rdi), %xmm8
	mulsd	1248(%rdi), %xmm1
	ja	.L3128
	movl	1264(%rdi), %eax
	jmp	*.L533(,%rax,8)
	.section	.rodata
	.align 8
	.align 4
.L533:
	.quad	.L532
	.quad	.L534
	.quad	.L535
	.quad	.L536
	.quad	.L537
	.quad	.L538
	.quad	.L539
	.quad	.L540
	.quad	.L541
	.quad	.L542
	.quad	.L543
	.quad	.L544
	.quad	.L545
	.quad	.L546
	.quad	.L547
	.quad	.L548
	.quad	.L549
	.quad	.L550
	.quad	.L551
	.quad	.L552
	.quad	.L553
	.quad	.L554
	.quad	.L555
	.quad	.L556
	.quad	.L557
	.quad	.L558
	.quad	.L559
	.quad	.L560
	.quad	.L561
	.quad	.L562
	.quad	.L563
	.quad	.L564
	.quad	.L565
	.text
	.p2align 4,,10
	.p2align 3
.L564:
	movsd	824(%rdi), %xmm4
	movl	920(%rdi), %eax
	movsd	.LC21(%rip), %xmm2
	movapd	%xmm4, %xmm3
	cmpl	$1, %eax
	mulsd	%xmm2, %xmm3
	cvttsd2siq	%xmm3, %rdx
	movsd	880(%rdi), %xmm3
	movsd	%xmm3, 928(%rdi)
	je	.L2983
	jle	.L5819
	cmpl	$3, %eax
	je	.L2986
	cmpl	$4, %eax
	.p2align 4,,5
	jne	.L5460
	xorpd	%xmm4, %xmm4
	movsd	%xmm4, 880(%rdi)
	movapd	%xmm4, %xmm3
.L2982:
	movl	816(%rdi), %edx
	mulsd	.LC0(%rip), %xmm1
	movsd	%xmm3, 872(%rdi)
	movl	%edx, %eax
	addl	820(%rdi), %edx
	shrl	$16, %eax
	cvtsi2sdq	%rax, %xmm10
	movl	%edx, 816(%rdi)
	addsd	%xmm10, %xmm1
	cvttsd2siq	%xmm1, %rax
	movsd	952(%rdi), %xmm1
	mulsd	%xmm3, %xmm1
	andl	$4095, %eax
	mulsd	waveform(,%rax,8), %xmm1
	movl	760(%rdi), %eax
	cmpl	$1, %eax
	mulsd	%xmm8, %xmm1
	movsd	664(%rdi), %xmm8
	movapd	%xmm8, %xmm3
	mulsd	%xmm2, %xmm3
	cvttsd2siq	%xmm3, %rdx
	movsd	720(%rdi), %xmm3
	movsd	%xmm3, 768(%rdi)
	je	.L2996
	jle	.L5820
	cmpl	$3, %eax
	je	.L2999
	cmpl	$4, %eax
	.p2align 4,,5
	jne	.L2995
	movapd	%xmm4, %xmm3
	movq	$0, 720(%rdi)
.L2995:
	movl	656(%rdi), %edx
	movsd	%xmm3, 712(%rdi)
	mulsd	792(%rdi), %xmm3
	movl	%edx, %eax
	addl	660(%rdi), %edx
	shrl	$16, %eax
	cvtsi2sdq	%rax, %xmm8
	movl	%edx, 656(%rdi)
	addsd	%xmm4, %xmm8
	cvttsd2siq	%xmm8, %rax
	movsd	504(%rdi), %xmm8
	andl	$4095, %eax
	mulsd	waveform(,%rax,8), %xmm3
	movl	600(%rdi), %eax
	cmpl	$1, %eax
	mulsd	%xmm7, %xmm3
	movapd	%xmm8, %xmm7
	mulsd	%xmm2, %xmm7
	cvttsd2siq	%xmm7, %rdx
	movsd	560(%rdi), %xmm7
	movsd	%xmm7, 608(%rdi)
	je	.L3009
	jle	.L5821
	cmpl	$3, %eax
	je	.L3012
	cmpl	$4, %eax
	.p2align 4,,5
	jne	.L3008
	movapd	%xmm4, %xmm7
	movq	$0, 560(%rdi)
.L3008:
	movl	496(%rdi), %edx
	movsd	%xmm7, 552(%rdi)
	mulsd	632(%rdi), %xmm7
	movl	%edx, %eax
	addl	500(%rdi), %edx
	shrl	$16, %eax
	cvtsi2sdq	%rax, %xmm8
	movl	%edx, 496(%rdi)
	addsd	%xmm4, %xmm8
	cvttsd2siq	%xmm8, %rax
	andl	$4095, %eax
	mulsd	waveform(,%rax,8), %xmm7
	movl	440(%rdi), %eax
	cmpl	$1, %eax
	mulsd	%xmm9, %xmm7
	movsd	344(%rdi), %xmm9
	movapd	%xmm9, %xmm8
	mulsd	%xmm2, %xmm8
	cvttsd2siq	%xmm8, %rdx
	movsd	400(%rdi), %xmm8
	movsd	%xmm8, 448(%rdi)
	je	.L3022
	jle	.L5822
	cmpl	$3, %eax
	je	.L3025
	cmpl	$4, %eax
	.p2align 4,,5
	jne	.L3021
	movapd	%xmm4, %xmm8
	movq	$0, 400(%rdi)
.L3021:
	movl	336(%rdi), %edx
	movsd	%xmm8, 392(%rdi)
	mulsd	472(%rdi), %xmm8
	movl	%edx, %eax
	addl	340(%rdi), %edx
	shrl	$16, %eax
	cvtsi2sdq	%rax, %xmm9
	movl	%edx, 336(%rdi)
	addsd	%xmm4, %xmm9
	cvttsd2siq	%xmm9, %rax
	movsd	184(%rdi), %xmm9
	andl	$4095, %eax
	mulsd	waveform(,%rax,8), %xmm8
	movl	280(%rdi), %eax
	cmpl	$1, %eax
	mulsd	%xmm6, %xmm8
	movapd	%xmm9, %xmm6
	mulsd	%xmm2, %xmm6
	cvttsd2siq	%xmm6, %rdx
	movsd	240(%rdi), %xmm6
	movsd	%xmm6, 288(%rdi)
	je	.L3035
	jle	.L5823
	cmpl	$3, %eax
	je	.L3038
	cmpl	$4, %eax
	.p2align 4,,5
	jne	.L3034
	movapd	%xmm4, %xmm6
	movq	$0, 240(%rdi)
.L3034:
	movl	176(%rdi), %edx
	movsd	%xmm6, 232(%rdi)
	mulsd	312(%rdi), %xmm6
	movl	%edx, %eax
	addl	180(%rdi), %edx
	shrl	$16, %eax
	cvtsi2sdq	%rax, %xmm9
	movl	%edx, 176(%rdi)
	addsd	%xmm4, %xmm9
	cvttsd2siq	%xmm9, %rax
	movsd	24(%rdi), %xmm9
	mulsd	%xmm9, %xmm2
	cvttsd2siq	%xmm2, %rdx
	andl	$4095, %eax
	mulsd	waveform(,%rax,8), %xmm6
	movl	120(%rdi), %eax
	cmpl	$1, %eax
	mulsd	%xmm0, %xmm6
	movsd	80(%rdi), %xmm0
	movsd	%xmm0, 128(%rdi)
	je	.L3048
	jle	.L5824
	cmpl	$3, %eax
	je	.L3051
	cmpl	$4, %eax
	.p2align 4,,5
	jne	.L3047
	movapd	%xmm4, %xmm0
	movq	$0, 80(%rdi)
.L3047:
	movl	16(%rdi), %edx
	movsd	%xmm0, 72(%rdi)
	mulsd	152(%rdi), %xmm0
	movl	%edx, %eax
	addl	20(%rdi), %edx
	shrl	$16, %eax
	cvtsi2sdq	%rax, %xmm2
	movl	%edx, 16(%rdi)
	addsd	%xmm4, %xmm2
	cvttsd2siq	%xmm2, %rax
	andl	$4095, %eax
	mulsd	waveform(,%rax,8), %xmm0
	mulsd	%xmm5, %xmm0
	addsd	%xmm6, %xmm0
	addsd	%xmm8, %xmm0
	addsd	%xmm7, %xmm0
	addsd	%xmm3, %xmm0
	addsd	%xmm1, %xmm0
	divsd	.LC3(%rip), %xmm0
	.p2align 4,,10
	.p2align 3
.L531:
	movsd	%xmm1, 1272(%rdi)
	ret
	.p2align 4,,10
	.p2align 3
.L563:
	movsd	824(%rdi), %xmm3
	movl	920(%rdi), %eax
	movsd	.LC21(%rip), %xmm2
	movapd	%xmm3, %xmm4
	movsd	880(%rdi), %xmm10
	cmpl	$1, %eax
	mulsd	%xmm2, %xmm4
	movsd	%xmm10, 928(%rdi)
	cvttsd2siq	%xmm4, %rdx
	je	.L2905
	jle	.L5825
	cmpl	$3, %eax
	je	.L2908
	cmpl	$4, %eax
	.p2align 4,,5
	jne	.L5436
	xorpd	%xmm4, %xmm4
	movsd	%xmm4, 880(%rdi)
	movapd	%xmm4, %xmm10
.L2904:
	movl	816(%rdi), %edx
	movsd	.LC0(%rip), %xmm3
	movsd	%xmm10, 872(%rdi)
	mulsd	%xmm3, %xmm1
	movl	%edx, %eax
	addl	820(%rdi), %edx
	shrl	$16, %eax
	cvtsi2sdq	%rax, %xmm11
	movl	%edx, 816(%rdi)
	addsd	%xmm11, %xmm1
	cvttsd2siq	%xmm1, %rax
	movsd	952(%rdi), %xmm1
	mulsd	%xmm10, %xmm1
	movsd	664(%rdi), %xmm10
	andl	$4095, %eax
	mulsd	waveform(,%rax,8), %xmm1
	movl	760(%rdi), %eax
	cmpl	$1, %eax
	mulsd	%xmm8, %xmm1
	movapd	%xmm10, %xmm8
	mulsd	%xmm2, %xmm8
	cvttsd2siq	%xmm8, %rdx
	movsd	720(%rdi), %xmm8
	movsd	%xmm8, 768(%rdi)
	je	.L2918
	jle	.L5826
	cmpl	$3, %eax
	je	.L2921
	cmpl	$4, %eax
	.p2align 4,,5
	jne	.L2917
	movapd	%xmm4, %xmm8
	movq	$0, 720(%rdi)
.L2917:
	movl	656(%rdi), %edx
	mulsd	%xmm1, %xmm3
	movsd	%xmm8, 712(%rdi)
	movl	%edx, %eax
	addl	660(%rdi), %edx
	shrl	$16, %eax
	cvtsi2sdq	%rax, %xmm10
	movl	%edx, 656(%rdi)
	addsd	%xmm10, %xmm3
	cvttsd2siq	%xmm3, %rax
	movsd	792(%rdi), %xmm3
	mulsd	%xmm8, %xmm3
	movsd	504(%rdi), %xmm8
	andl	$4095, %eax
	mulsd	waveform(,%rax,8), %xmm3
	movl	600(%rdi), %eax
	cmpl	$1, %eax
	mulsd	%xmm7, %xmm3
	movapd	%xmm8, %xmm7
	mulsd	%xmm2, %xmm7
	cvttsd2siq	%xmm7, %rdx
	movsd	560(%rdi), %xmm7
	movsd	%xmm7, 608(%rdi)
	je	.L2931
	jle	.L5827
	cmpl	$3, %eax
	je	.L2934
	cmpl	$4, %eax
	.p2align 4,,5
	jne	.L2930
	movapd	%xmm4, %xmm7
	movq	$0, 560(%rdi)
.L2930:
	movl	496(%rdi), %edx
	movsd	%xmm7, 552(%rdi)
	mulsd	632(%rdi), %xmm7
	movl	%edx, %eax
	addl	500(%rdi), %edx
	shrl	$16, %eax
	cvtsi2sdq	%rax, %xmm8
	movl	%edx, 496(%rdi)
	addsd	%xmm4, %xmm8
	cvttsd2siq	%xmm8, %rax
	andl	$4095, %eax
	mulsd	waveform(,%rax,8), %xmm7
	movl	440(%rdi), %eax
	cmpl	$1, %eax
	mulsd	%xmm9, %xmm7
	movsd	344(%rdi), %xmm9
	movapd	%xmm9, %xmm8
	mulsd	%xmm2, %xmm8
	cvttsd2siq	%xmm8, %rdx
	movsd	400(%rdi), %xmm8
	movsd	%xmm8, 448(%rdi)
	je	.L2944
	jle	.L5828
	cmpl	$3, %eax
	je	.L2947
	cmpl	$4, %eax
	.p2align 4,,5
	jne	.L2943
	movapd	%xmm4, %xmm8
	movq	$0, 400(%rdi)
.L2943:
	movl	336(%rdi), %edx
	movsd	%xmm8, 392(%rdi)
	mulsd	472(%rdi), %xmm8
	movl	%edx, %eax
	addl	340(%rdi), %edx
	shrl	$16, %eax
	cvtsi2sdq	%rax, %xmm9
	movl	%edx, 336(%rdi)
	addsd	%xmm4, %xmm9
	cvttsd2siq	%xmm9, %rax
	movsd	184(%rdi), %xmm9
	andl	$4095, %eax
	mulsd	waveform(,%rax,8), %xmm8
	movl	280(%rdi), %eax
	cmpl	$1, %eax
	mulsd	%xmm6, %xmm8
	movapd	%xmm9, %xmm6
	mulsd	%xmm2, %xmm6
	cvttsd2siq	%xmm6, %rdx
	movsd	240(%rdi), %xmm6
	movsd	%xmm6, 288(%rdi)
	je	.L2957
	jle	.L5829
	cmpl	$3, %eax
	je	.L2960
	cmpl	$4, %eax
	.p2align 4,,5
	jne	.L2956
	movapd	%xmm4, %xmm6
	movq	$0, 240(%rdi)
.L2956:
	movl	176(%rdi), %edx
	movsd	%xmm6, 232(%rdi)
	mulsd	312(%rdi), %xmm6
	movl	%edx, %eax
	addl	180(%rdi), %edx
	shrl	$16, %eax
	cvtsi2sdq	%rax, %xmm9
	movl	%edx, 176(%rdi)
	addsd	%xmm4, %xmm9
	cvttsd2siq	%xmm9, %rax
	movsd	24(%rdi), %xmm9
	mulsd	%xmm9, %xmm2
	cvttsd2siq	%xmm2, %rdx
	andl	$4095, %eax
	mulsd	waveform(,%rax,8), %xmm6
	movl	120(%rdi), %eax
	cmpl	$1, %eax
	mulsd	%xmm0, %xmm6
	movsd	80(%rdi), %xmm0
	movsd	%xmm0, 128(%rdi)
	je	.L2970
	jle	.L5830
	cmpl	$3, %eax
	je	.L2973
	cmpl	$4, %eax
	.p2align 4,,5
	jne	.L2969
	movapd	%xmm4, %xmm0
	movq	$0, 80(%rdi)
.L2969:
	movl	16(%rdi), %edx
	movsd	%xmm0, 72(%rdi)
	mulsd	152(%rdi), %xmm0
	movl	%edx, %eax
	addl	20(%rdi), %edx
	shrl	$16, %eax
	cvtsi2sdq	%rax, %xmm2
	movl	%edx, 16(%rdi)
	addsd	%xmm4, %xmm2
	cvttsd2siq	%xmm2, %rax
	andl	$4095, %eax
	mulsd	waveform(,%rax,8), %xmm0
	mulsd	%xmm5, %xmm0
	addsd	%xmm6, %xmm0
	addsd	%xmm8, %xmm0
	addsd	%xmm7, %xmm0
	addsd	%xmm3, %xmm0
	divsd	.LC23(%rip), %xmm0
	jmp	.L531
	.p2align 4,,10
	.p2align 3
.L562:
	movsd	824(%rdi), %xmm3
	movl	920(%rdi), %eax
	movsd	.LC21(%rip), %xmm2
	movapd	%xmm3, %xmm4
	movsd	880(%rdi), %xmm10
	cmpl	$1, %eax
	mulsd	%xmm2, %xmm4
	movsd	%xmm10, 928(%rdi)
	cvttsd2siq	%xmm4, %rdx
	je	.L2827
	jle	.L5831
	cmpl	$3, %eax
	je	.L2830
	cmpl	$4, %eax
	.p2align 4,,5
	jne	.L5412
	xorpd	%xmm4, %xmm4
	movsd	%xmm4, 880(%rdi)
	movapd	%xmm4, %xmm10
.L2826:
	movl	816(%rdi), %edx
	movsd	%xmm10, 872(%rdi)
	mulsd	952(%rdi), %xmm10
	movl	%edx, %eax
	addl	820(%rdi), %edx
	shrl	$16, %eax
	cvtsi2sdq	%rax, %xmm3
	movl	%edx, 816(%rdi)
	addsd	%xmm4, %xmm3
	cvttsd2siq	%xmm3, %rax
	movsd	664(%rdi), %xmm3
	andl	$4095, %eax
	mulsd	waveform(,%rax,8), %xmm10
	movl	760(%rdi), %eax
	cmpl	$1, %eax
	mulsd	%xmm8, %xmm10
	movapd	%xmm3, %xmm8
	mulsd	%xmm2, %xmm8
	cvttsd2siq	%xmm8, %rdx
	movsd	720(%rdi), %xmm8
	movsd	%xmm8, 768(%rdi)
	je	.L2840
	jle	.L5832
	cmpl	$3, %eax
	je	.L2843
	cmpl	$4, %eax
	.p2align 4,,5
	jne	.L2839
	movapd	%xmm4, %xmm8
	movq	$0, 720(%rdi)
.L2839:
	movl	656(%rdi), %edx
	movsd	.LC0(%rip), %xmm3
	movsd	%xmm8, 712(%rdi)
	mulsd	%xmm3, %xmm1
	movl	%edx, %eax
	addl	660(%rdi), %edx
	shrl	$16, %eax
	cvtsi2sdq	%rax, %xmm11
	movl	%edx, 656(%rdi)
	addsd	%xmm11, %xmm1
	cvttsd2siq	%xmm1, %rax
	movsd	792(%rdi), %xmm1
	mulsd	%xmm8, %xmm1
	movsd	504(%rdi), %xmm8
	andl	$4095, %eax
	mulsd	waveform(,%rax,8), %xmm1
	movl	600(%rdi), %eax
	cmpl	$1, %eax
	mulsd	%xmm7, %xmm1
	movapd	%xmm8, %xmm7
	mulsd	%xmm2, %xmm7
	cvttsd2siq	%xmm7, %rdx
	movsd	560(%rdi), %xmm7
	movsd	%xmm7, 608(%rdi)
	je	.L2853
	jle	.L5833
	cmpl	$3, %eax
	je	.L2856
	cmpl	$4, %eax
	.p2align 4,,5
	jne	.L2852
	movapd	%xmm4, %xmm7
	movq	$0, 560(%rdi)
.L2852:
	movl	496(%rdi), %edx
	movapd	%xmm1, %xmm8
	movsd	%xmm7, 552(%rdi)
	mulsd	632(%rdi), %xmm7
	mulsd	%xmm3, %xmm8
	movl	%edx, %eax
	addl	500(%rdi), %edx
	shrl	$16, %eax
	cvtsi2sdq	%rax, %xmm11
	movl	%edx, 496(%rdi)
	addsd	%xmm11, %xmm8
	cvttsd2siq	%xmm8, %rax
	andl	$4095, %eax
	mulsd	waveform(,%rax,8), %xmm7
	movl	440(%rdi), %eax
	cmpl	$1, %eax
	mulsd	%xmm9, %xmm7
	movsd	344(%rdi), %xmm9
	movapd	%xmm9, %xmm8
	mulsd	%xmm2, %xmm8
	cvttsd2siq	%xmm8, %rdx
	movsd	400(%rdi), %xmm8
	movsd	%xmm8, 448(%rdi)
	je	.L2866
	jle	.L5834
	cmpl	$3, %eax
	je	.L2869
	cmpl	$4, %eax
	.p2align 4,,5
	jne	.L2865
	movapd	%xmm4, %xmm8
	movq	$0, 400(%rdi)
.L2865:
	movl	336(%rdi), %edx
	mulsd	%xmm3, %xmm7
	movsd	%xmm8, 392(%rdi)
	movl	%edx, %eax
	addl	340(%rdi), %edx
	shrl	$16, %eax
	cvtsi2sdq	%rax, %xmm3
	movl	%edx, 336(%rdi)
	addsd	%xmm3, %xmm7
	movsd	472(%rdi), %xmm3
	mulsd	%xmm8, %xmm3
	cvttsd2siq	%xmm7, %rax
	movsd	184(%rdi), %xmm7
	andl	$4095, %eax
	mulsd	waveform(,%rax,8), %xmm3
	movl	280(%rdi), %eax
	cmpl	$1, %eax
	mulsd	%xmm6, %xmm3
	movapd	%xmm7, %xmm6
	mulsd	%xmm2, %xmm6
	cvttsd2siq	%xmm6, %rdx
	movsd	240(%rdi), %xmm6
	movsd	%xmm6, 288(%rdi)
	je	.L2879
	jle	.L5835
	cmpl	$3, %eax
	je	.L2882
	cmpl	$4, %eax
	.p2align 4,,5
	jne	.L2878
	movapd	%xmm4, %xmm6
	movq	$0, 240(%rdi)
.L2878:
	movl	176(%rdi), %edx
	movsd	%xmm6, 232(%rdi)
	mulsd	312(%rdi), %xmm6
	movl	%edx, %eax
	addl	180(%rdi), %edx
	shrl	$16, %eax
	cvtsi2sdq	%rax, %xmm7
	movl	%edx, 176(%rdi)
	addsd	%xmm4, %xmm7
	cvttsd2siq	%xmm7, %rax
	movsd	24(%rdi), %xmm7
	mulsd	%xmm7, %xmm2
	cvttsd2siq	%xmm2, %rdx
	andl	$4095, %eax
	mulsd	waveform(,%rax,8), %xmm6
	movl	120(%rdi), %eax
	cmpl	$1, %eax
	mulsd	%xmm0, %xmm6
	movsd	80(%rdi), %xmm0
	movsd	%xmm0, 128(%rdi)
	je	.L2892
	jle	.L5836
	cmpl	$3, %eax
	je	.L2895
	cmpl	$4, %eax
	.p2align 4,,5
	jne	.L2891
	movapd	%xmm4, %xmm0
	movq	$0, 80(%rdi)
.L2891:
	movl	16(%rdi), %edx
	movsd	%xmm0, 72(%rdi)
	mulsd	152(%rdi), %xmm0
	movl	%edx, %eax
	addl	20(%rdi), %edx
	shrl	$16, %eax
	cvtsi2sdq	%rax, %xmm2
	movl	%edx, 16(%rdi)
	addsd	%xmm4, %xmm2
	cvttsd2siq	%xmm2, %rax
	andl	$4095, %eax
	mulsd	waveform(,%rax,8), %xmm0
	mulsd	%xmm5, %xmm0
	addsd	%xmm6, %xmm0
	addsd	%xmm3, %xmm0
	addsd	%xmm10, %xmm0
	mulsd	.LC22(%rip), %xmm0
	jmp	.L531
	.p2align 4,,10
	.p2align 3
.L561:
	movsd	824(%rdi), %xmm3
	movl	920(%rdi), %eax
	movsd	.LC21(%rip), %xmm2
	movapd	%xmm3, %xmm4
	movsd	880(%rdi), %xmm10
	cmpl	$1, %eax
	mulsd	%xmm2, %xmm4
	movsd	%xmm10, 928(%rdi)
	cvttsd2siq	%xmm4, %rdx
	je	.L2749
	jle	.L5837
	cmpl	$3, %eax
	je	.L2752
	cmpl	$4, %eax
	.p2align 4,,5
	jne	.L5388
	xorpd	%xmm4, %xmm4
	movsd	%xmm4, 880(%rdi)
	movapd	%xmm4, %xmm10
.L2748:
	movl	816(%rdi), %edx
	movsd	.LC0(%rip), %xmm3
	movsd	%xmm10, 872(%rdi)
	mulsd	%xmm3, %xmm1
	movl	%edx, %eax
	addl	820(%rdi), %edx
	shrl	$16, %eax
	cvtsi2sdq	%rax, %xmm11
	movl	%edx, 816(%rdi)
	addsd	%xmm11, %xmm1
	cvttsd2siq	%xmm1, %rax
	movsd	952(%rdi), %xmm1
	mulsd	%xmm10, %xmm1
	movsd	664(%rdi), %xmm10
	andl	$4095, %eax
	mulsd	waveform(,%rax,8), %xmm1
	movl	760(%rdi), %eax
	cmpl	$1, %eax
	mulsd	%xmm8, %xmm1
	movapd	%xmm10, %xmm8
	mulsd	%xmm2, %xmm8
	cvttsd2siq	%xmm8, %rdx
	movsd	720(%rdi), %xmm8
	movsd	%xmm8, 768(%rdi)
	je	.L2762
	jle	.L5838
	cmpl	$3, %eax
	je	.L2765
	cmpl	$4, %eax
	.p2align 4,,5
	jne	.L2761
	movapd	%xmm4, %xmm8
	movq	$0, 720(%rdi)
.L2761:
	movl	656(%rdi), %edx
	movapd	%xmm1, %xmm10
	movsd	%xmm8, 712(%rdi)
	mulsd	792(%rdi), %xmm8
	mulsd	%xmm3, %xmm10
	movl	%edx, %eax
	addl	660(%rdi), %edx
	shrl	$16, %eax
	cvtsi2sdq	%rax, %xmm11
	movl	%edx, 656(%rdi)
	addsd	%xmm11, %xmm10
	cvttsd2siq	%xmm10, %rax
	movsd	504(%rdi), %xmm10
	andl	$4095, %eax
	mulsd	waveform(,%rax,8), %xmm8
	movl	600(%rdi), %eax
	cmpl	$1, %eax
	mulsd	%xmm7, %xmm8
	movapd	%xmm10, %xmm7
	mulsd	%xmm2, %xmm7
	cvttsd2siq	%xmm7, %rdx
	movsd	560(%rdi), %xmm7
	movsd	%xmm7, 608(%rdi)
	je	.L2775
	jle	.L5839
	cmpl	$3, %eax
	je	.L2778
	cmpl	$4, %eax
	.p2align 4,,5
	jne	.L2774
	movapd	%xmm4, %xmm7
	movq	$0, 560(%rdi)
.L2774:
	movl	496(%rdi), %edx
	movsd	%xmm7, 552(%rdi)
	mulsd	632(%rdi), %xmm7
	movl	%edx, %eax
	addl	500(%rdi), %edx
	shrl	$16, %eax
	cvtsi2sdq	%rax, %xmm10
	movl	%edx, 496(%rdi)
	addsd	%xmm4, %xmm10
	cvttsd2siq	%xmm10, %rax
	movsd	344(%rdi), %xmm10
	andl	$4095, %eax
	mulsd	waveform(,%rax,8), %xmm7
	movl	440(%rdi), %eax
	cmpl	$1, %eax
	mulsd	%xmm9, %xmm7
	movapd	%xmm10, %xmm9
	mulsd	%xmm2, %xmm9
	cvttsd2siq	%xmm9, %rdx
	movsd	400(%rdi), %xmm9
	movsd	%xmm9, 448(%rdi)
	je	.L2788
	jle	.L5840
	cmpl	$3, %eax
	je	.L2791
	cmpl	$4, %eax
	.p2align 4,,5
	jne	.L2787
	movapd	%xmm4, %xmm9
	movq	$0, 400(%rdi)
.L2787:
	movl	336(%rdi), %edx
	mulsd	%xmm3, %xmm7
	movsd	%xmm9, 392(%rdi)
	movl	%edx, %eax
	addl	340(%rdi), %edx
	shrl	$16, %eax
	cvtsi2sdq	%rax, %xmm3
	movl	%edx, 336(%rdi)
	addsd	%xmm3, %xmm7
	movsd	472(%rdi), %xmm3
	mulsd	%xmm9, %xmm3
	cvttsd2siq	%xmm7, %rax
	movsd	184(%rdi), %xmm7
	andl	$4095, %eax
	mulsd	waveform(,%rax,8), %xmm3
	movl	280(%rdi), %eax
	cmpl	$1, %eax
	mulsd	%xmm6, %xmm3
	movapd	%xmm7, %xmm6
	mulsd	%xmm2, %xmm6
	cvttsd2siq	%xmm6, %rdx
	movsd	240(%rdi), %xmm6
	movsd	%xmm6, 288(%rdi)
	je	.L2801
	jle	.L5841
	cmpl	$3, %eax
	je	.L2804
	cmpl	$4, %eax
	.p2align 4,,5
	jne	.L2800
	movapd	%xmm4, %xmm6
	movq	$0, 240(%rdi)
.L2800:
	movl	176(%rdi), %edx
	movsd	%xmm6, 232(%rdi)
	mulsd	312(%rdi), %xmm6
	movl	%edx, %eax
	addl	180(%rdi), %edx
	shrl	$16, %eax
	cvtsi2sdq	%rax, %xmm7
	movl	%edx, 176(%rdi)
	addsd	%xmm4, %xmm7
	cvttsd2siq	%xmm7, %rax
	movsd	24(%rdi), %xmm7
	mulsd	%xmm7, %xmm2
	cvttsd2siq	%xmm2, %rdx
	andl	$4095, %eax
	mulsd	waveform(,%rax,8), %xmm6
	movl	120(%rdi), %eax
	cmpl	$1, %eax
	mulsd	%xmm0, %xmm6
	movsd	80(%rdi), %xmm0
	movsd	%xmm0, 128(%rdi)
	je	.L2814
	jle	.L5842
	cmpl	$3, %eax
	je	.L2817
	cmpl	$4, %eax
	.p2align 4,,5
	jne	.L2813
	movapd	%xmm4, %xmm0
	movq	$0, 80(%rdi)
.L2813:
	movl	16(%rdi), %edx
	movsd	%xmm0, 72(%rdi)
	mulsd	152(%rdi), %xmm0
	movl	%edx, %eax
	addl	20(%rdi), %edx
	shrl	$16, %eax
	cvtsi2sdq	%rax, %xmm2
	movl	%edx, 16(%rdi)
	addsd	%xmm4, %xmm2
	cvttsd2siq	%xmm2, %rax
	andl	$4095, %eax
	mulsd	waveform(,%rax,8), %xmm0
	mulsd	%xmm5, %xmm0
	addsd	%xmm6, %xmm0
	addsd	%xmm3, %xmm0
	addsd	%xmm8, %xmm0
	mulsd	.LC22(%rip), %xmm0
	jmp	.L531
	.p2align 4,,10
	.p2align 3
.L560:
	movsd	824(%rdi), %xmm3
	movl	920(%rdi), %eax
	movsd	.LC21(%rip), %xmm2
	movapd	%xmm3, %xmm4
	movsd	880(%rdi), %xmm10
	cmpl	$1, %eax
	mulsd	%xmm2, %xmm4
	movsd	%xmm10, 928(%rdi)
	cvttsd2siq	%xmm4, %rdx
	je	.L2671
	jle	.L5843
	cmpl	$3, %eax
	je	.L2674
	cmpl	$4, %eax
	.p2align 4,,5
	jne	.L5364
	xorpd	%xmm4, %xmm4
	movsd	%xmm4, 880(%rdi)
	movapd	%xmm4, %xmm10
.L2670:
	movl	816(%rdi), %edx
	movsd	%xmm10, 872(%rdi)
	mulsd	952(%rdi), %xmm10
	movl	%edx, %eax
	addl	820(%rdi), %edx
	shrl	$16, %eax
	cvtsi2sdq	%rax, %xmm3
	movl	%edx, 816(%rdi)
	addsd	%xmm4, %xmm3
	cvttsd2siq	%xmm3, %rax
	movsd	664(%rdi), %xmm3
	andl	$4095, %eax
	mulsd	waveform(,%rax,8), %xmm10
	movl	760(%rdi), %eax
	cmpl	$1, %eax
	mulsd	%xmm8, %xmm10
	movapd	%xmm3, %xmm8
	mulsd	%xmm2, %xmm8
	cvttsd2siq	%xmm8, %rdx
	movsd	720(%rdi), %xmm8
	movsd	%xmm8, 768(%rdi)
	je	.L2684
	jle	.L5844
	cmpl	$3, %eax
	je	.L2687
	cmpl	$4, %eax
	.p2align 4,,5
	jne	.L2683
	movapd	%xmm4, %xmm8
	movq	$0, 720(%rdi)
.L2683:
	movl	656(%rdi), %edx
	movsd	.LC0(%rip), %xmm3
	movsd	%xmm8, 712(%rdi)
	mulsd	%xmm3, %xmm1
	movl	%edx, %eax
	addl	660(%rdi), %edx
	shrl	$16, %eax
	cvtsi2sdq	%rax, %xmm11
	movl	%edx, 656(%rdi)
	addsd	%xmm11, %xmm1
	cvttsd2siq	%xmm1, %rax
	movsd	792(%rdi), %xmm1
	mulsd	%xmm8, %xmm1
	andl	$4095, %eax
	mulsd	waveform(,%rax,8), %xmm1
	movl	600(%rdi), %eax
	cmpl	$1, %eax
	mulsd	%xmm7, %xmm1
	movsd	504(%rdi), %xmm7
	movapd	%xmm7, %xmm8
	mulsd	%xmm2, %xmm8
	cvttsd2siq	%xmm8, %rdx
	movsd	560(%rdi), %xmm8
	movsd	%xmm8, 608(%rdi)
	je	.L2697
	jle	.L5845
	cmpl	$3, %eax
	je	.L2700
	cmpl	$4, %eax
	.p2align 4,,5
	jne	.L2696
	movapd	%xmm4, %xmm8
	movq	$0, 560(%rdi)
.L2696:
	movl	496(%rdi), %edx
	movapd	%xmm1, %xmm7
	movsd	%xmm8, 552(%rdi)
	mulsd	632(%rdi), %xmm8
	mulsd	%xmm3, %xmm7
	movl	%edx, %eax
	addl	500(%rdi), %edx
	shrl	$16, %eax
	cvtsi2sdq	%rax, %xmm11
	movl	%edx, 496(%rdi)
	addsd	%xmm11, %xmm7
	cvttsd2siq	%xmm7, %rax
	andl	$4095, %eax
	mulsd	waveform(,%rax,8), %xmm8
	movl	440(%rdi), %eax
	cmpl	$1, %eax
	mulsd	%xmm9, %xmm8
	movsd	344(%rdi), %xmm9
	movapd	%xmm9, %xmm7
	mulsd	%xmm2, %xmm7
	cvttsd2siq	%xmm7, %rdx
	movsd	400(%rdi), %xmm7
	movsd	%xmm7, 448(%rdi)
	je	.L2710
	jle	.L5846
	cmpl	$3, %eax
	je	.L2713
	cmpl	$4, %eax
	.p2align 4,,5
	jne	.L2709
	movapd	%xmm4, %xmm7
	movq	$0, 400(%rdi)
.L2709:
	movl	336(%rdi), %edx
	mulsd	%xmm3, %xmm8
	movsd	%xmm7, 392(%rdi)
	mulsd	472(%rdi), %xmm7
	movl	%edx, %eax
	addl	340(%rdi), %edx
	shrl	$16, %eax
	cvtsi2sdq	%rax, %xmm9
	movl	%edx, 336(%rdi)
	addsd	%xmm9, %xmm8
	cvttsd2siq	%xmm8, %rax
	movsd	184(%rdi), %xmm8
	andl	$4095, %eax
	mulsd	waveform(,%rax,8), %xmm7
	movl	280(%rdi), %eax
	cmpl	$1, %eax
	mulsd	%xmm6, %xmm7
	movapd	%xmm8, %xmm6
	mulsd	%xmm2, %xmm6
	cvttsd2siq	%xmm6, %rdx
	movsd	240(%rdi), %xmm6
	movsd	%xmm6, 288(%rdi)
	je	.L2723
	jle	.L5847
	cmpl	$3, %eax
	je	.L2726
	cmpl	$4, %eax
	.p2align 4,,5
	jne	.L2722
	movapd	%xmm4, %xmm6
	movq	$0, 240(%rdi)
.L2722:
	movl	176(%rdi), %edx
	movsd	%xmm6, 232(%rdi)
	mulsd	312(%rdi), %xmm6
	movl	%edx, %eax
	addl	180(%rdi), %edx
	shrl	$16, %eax
	cvtsi2sdq	%rax, %xmm8
	movl	%edx, 176(%rdi)
	addsd	%xmm4, %xmm8
	cvttsd2siq	%xmm8, %rax
	movsd	24(%rdi), %xmm8
	mulsd	%xmm8, %xmm2
	cvttsd2siq	%xmm2, %rdx
	andl	$4095, %eax
	mulsd	waveform(,%rax,8), %xmm6
	movl	120(%rdi), %eax
	cmpl	$1, %eax
	mulsd	%xmm0, %xmm6
	movsd	80(%rdi), %xmm0
	movsd	%xmm0, 128(%rdi)
	je	.L2736
	jle	.L5848
	cmpl	$3, %eax
	je	.L2739
	cmpl	$4, %eax
	.p2align 4,,5
	jne	.L2735
	movapd	%xmm4, %xmm0
	movq	$0, 80(%rdi)
.L2735:
	movl	16(%rdi), %edx
	mulsd	%xmm6, %xmm3
	movsd	%xmm0, 72(%rdi)
	mulsd	152(%rdi), %xmm0
	movl	%edx, %eax
	addl	20(%rdi), %edx
	shrl	$16, %eax
	cvtsi2sdq	%rax, %xmm2
	movl	%edx, 16(%rdi)
	addsd	%xmm2, %xmm3
	cvttsd2siq	%xmm3, %rax
	andl	$4095, %eax
	mulsd	waveform(,%rax,8), %xmm0
	mulsd	%xmm5, %xmm0
	addsd	%xmm7, %xmm0
	addsd	%xmm10, %xmm0
	divsd	.LC8(%rip), %xmm0
	jmp	.L531
	.p2align 4,,10
	.p2align 3
.L559:
	movsd	824(%rdi), %xmm4
	movl	920(%rdi), %eax
	movsd	.LC21(%rip), %xmm2
	movapd	%xmm4, %xmm3
	cmpl	$1, %eax
	mulsd	%xmm2, %xmm3
	cvttsd2siq	%xmm3, %rdx
	movsd	880(%rdi), %xmm3
	movsd	%xmm3, 928(%rdi)
	je	.L2593
	jle	.L5849
	cmpl	$3, %eax
	je	.L2596
	cmpl	$4, %eax
	.p2align 4,,5
	jne	.L5340
	xorpd	%xmm4, %xmm4
	movsd	%xmm4, 880(%rdi)
	movapd	%xmm4, %xmm3
.L2592:
	movl	816(%rdi), %edx
	movsd	%xmm3, 872(%rdi)
	mulsd	952(%rdi), %xmm3
	movl	%edx, %eax
	addl	820(%rdi), %edx
	shrl	$16, %eax
	cvtsi2sdq	%rax, %xmm10
	movl	%edx, 816(%rdi)
	addsd	%xmm4, %xmm10
	cvttsd2siq	%xmm10, %rax
	movsd	664(%rdi), %xmm10
	andl	$4095, %eax
	mulsd	waveform(,%rax,8), %xmm3
	movl	760(%rdi), %eax
	cmpl	$1, %eax
	mulsd	%xmm8, %xmm3
	movapd	%xmm10, %xmm8
	mulsd	%xmm2, %xmm8
	cvttsd2siq	%xmm8, %rdx
	movsd	720(%rdi), %xmm8
	movsd	%xmm8, 768(%rdi)
	je	.L2606
	jle	.L5850
	cmpl	$3, %eax
	je	.L2609
	cmpl	$4, %eax
	.p2align 4,,5
	jne	.L2605
	movapd	%xmm4, %xmm8
	movq	$0, 720(%rdi)
.L2605:
	movl	656(%rdi), %edx
	movsd	%xmm8, 712(%rdi)
	mulsd	792(%rdi), %xmm8
	movl	%edx, %eax
	addl	660(%rdi), %edx
	shrl	$16, %eax
	cvtsi2sdq	%rax, %xmm10
	movl	%edx, 656(%rdi)
	addsd	%xmm4, %xmm10
	cvttsd2siq	%xmm10, %rax
	andl	$4095, %eax
	mulsd	waveform(,%rax,8), %xmm8
	movl	600(%rdi), %eax
	cmpl	$1, %eax
	mulsd	%xmm7, %xmm8
	addsd	%xmm3, %xmm8
	movsd	504(%rdi), %xmm3
	movapd	%xmm3, %xmm7
	mulsd	%xmm2, %xmm7
	cvttsd2siq	%xmm7, %rdx
	movsd	560(%rdi), %xmm7
	movsd	%xmm7, 608(%rdi)
	je	.L2619
	jle	.L5851
	cmpl	$3, %eax
	je	.L2622
	cmpl	$4, %eax
	.p2align 4,,5
	jne	.L2618
	movapd	%xmm4, %xmm7
	movq	$0, 560(%rdi)
.L2618:
	movl	496(%rdi), %edx
	movsd	.LC0(%rip), %xmm3
	movsd	%xmm7, 552(%rdi)
	mulsd	632(%rdi), %xmm7
	mulsd	%xmm3, %xmm8
	movl	%edx, %eax
	addl	500(%rdi), %edx
	shrl	$16, %eax
	cvtsi2sdq	%rax, %xmm10
	movl	%edx, 496(%rdi)
	addsd	%xmm10, %xmm8
	cvttsd2siq	%xmm8, %rax
	andl	$4095, %eax
	mulsd	waveform(,%rax,8), %xmm7
	movl	440(%rdi), %eax
	cmpl	$1, %eax
	mulsd	%xmm9, %xmm7
	movsd	344(%rdi), %xmm9
	movapd	%xmm9, %xmm8
	mulsd	%xmm2, %xmm8
	cvttsd2siq	%xmm8, %rdx
	movsd	400(%rdi), %xmm8
	movsd	%xmm8, 448(%rdi)
	je	.L2632
	jle	.L5852
	cmpl	$3, %eax
	je	.L2635
	cmpl	$4, %eax
	.p2align 4,,5
	jne	.L2631
	movapd	%xmm4, %xmm8
	movq	$0, 400(%rdi)
.L2631:
	movl	336(%rdi), %edx
	mulsd	%xmm3, %xmm1
	movsd	%xmm8, 392(%rdi)
	movl	%edx, %eax
	addl	340(%rdi), %edx
	shrl	$16, %eax
	cvtsi2sdq	%rax, %xmm9
	movl	%edx, 336(%rdi)
	addsd	%xmm9, %xmm1
	cvttsd2siq	%xmm1, %rax
	movsd	472(%rdi), %xmm1
	mulsd	%xmm8, %xmm1
	movsd	184(%rdi), %xmm8
	andl	$4095, %eax
	mulsd	waveform(,%rax,8), %xmm1
	movl	280(%rdi), %eax
	cmpl	$1, %eax
	mulsd	%xmm6, %xmm1
	movapd	%xmm8, %xmm6
	mulsd	%xmm2, %xmm6
	cvttsd2siq	%xmm6, %rdx
	movsd	240(%rdi), %xmm6
	movsd	%xmm6, 288(%rdi)
	je	.L2645
	jle	.L5853
	cmpl	$3, %eax
	je	.L2648
	cmpl	$4, %eax
	.p2align 4,,5
	jne	.L2644
	movapd	%xmm4, %xmm6
	movq	$0, 240(%rdi)
.L2644:
	movl	176(%rdi), %edx
	mulsd	%xmm1, %xmm3
	movsd	%xmm6, 232(%rdi)
	movl	%edx, %eax
	shrl	$16, %eax
	cvtsi2sdq	%rax, %xmm8
	addsd	%xmm8, %xmm3
	cvttsd2siq	%xmm3, %rax
.L5794:
	mulsd	312(%rdi), %xmm6
	andl	$4095, %eax
	addl	180(%rdi), %edx
	movsd	waveform(,%rax,8), %xmm3
	movl	120(%rdi), %eax
	cmpl	$1, %eax
	movl	%edx, 176(%rdi)
	mulsd	%xmm6, %xmm3
	movsd	24(%rdi), %xmm6
	mulsd	%xmm6, %xmm2
	mulsd	%xmm0, %xmm3
	movsd	80(%rdi), %xmm0
	cvttsd2siq	%xmm2, %rdx
	movsd	%xmm0, 128(%rdi)
	je	.L2658
	jle	.L5854
	cmpl	$3, %eax
	je	.L2661
	cmpl	$4, %eax
	.p2align 4,,5
	jne	.L2657
	movapd	%xmm4, %xmm0
	movq	$0, 80(%rdi)
	.p2align 4,,10
	.p2align 3
.L2657:
	movl	16(%rdi), %edx
	movsd	%xmm0, 72(%rdi)
	mulsd	152(%rdi), %xmm0
	movl	%edx, %eax
	addl	20(%rdi), %edx
	shrl	$16, %eax
	cvtsi2sdq	%rax, %xmm2
	movl	%edx, 16(%rdi)
	addsd	%xmm4, %xmm2
	cvttsd2siq	%xmm2, %rax
	andl	$4095, %eax
	mulsd	waveform(,%rax,8), %xmm0
	mulsd	%xmm5, %xmm0
	addsd	%xmm3, %xmm0
	addsd	%xmm7, %xmm0
	divsd	.LC8(%rip), %xmm0
	jmp	.L531
	.p2align 4,,10
	.p2align 3
.L558:
	movsd	824(%rdi), %xmm3
	movl	920(%rdi), %eax
	movsd	.LC21(%rip), %xmm2
	movapd	%xmm3, %xmm4
	movsd	880(%rdi), %xmm10
	cmpl	$1, %eax
	mulsd	%xmm2, %xmm4
	movsd	%xmm10, 928(%rdi)
	cvttsd2siq	%xmm4, %rdx
	je	.L2515
	jle	.L5855
	cmpl	$3, %eax
	je	.L2518
	cmpl	$4, %eax
	.p2align 4,,5
	jne	.L5316
	xorpd	%xmm4, %xmm4
	movsd	%xmm4, 880(%rdi)
	movapd	%xmm4, %xmm10
.L2514:
	movl	816(%rdi), %edx
	movsd	.LC0(%rip), %xmm3
	movsd	%xmm10, 872(%rdi)
	mulsd	%xmm3, %xmm1
	movl	%edx, %eax
	addl	820(%rdi), %edx
	shrl	$16, %eax
	cvtsi2sdq	%rax, %xmm11
	movl	%edx, 816(%rdi)
	addsd	%xmm11, %xmm1
	cvttsd2siq	%xmm1, %rax
	movsd	952(%rdi), %xmm1
	mulsd	%xmm10, %xmm1
	movsd	664(%rdi), %xmm10
	andl	$4095, %eax
	mulsd	waveform(,%rax,8), %xmm1
	movl	760(%rdi), %eax
	cmpl	$1, %eax
	mulsd	%xmm8, %xmm1
	movapd	%xmm10, %xmm8
	mulsd	%xmm2, %xmm8
	cvttsd2siq	%xmm8, %rdx
	movsd	720(%rdi), %xmm8
	movsd	%xmm8, 768(%rdi)
	je	.L2528
	jle	.L5856
	cmpl	$3, %eax
	je	.L2531
	cmpl	$4, %eax
	.p2align 4,,5
	jne	.L2527
	movapd	%xmm4, %xmm8
	movq	$0, 720(%rdi)
.L2527:
	movl	656(%rdi), %edx
	movsd	%xmm8, 712(%rdi)
	mulsd	792(%rdi), %xmm8
	movl	%edx, %eax
	addl	660(%rdi), %edx
	shrl	$16, %eax
	cvtsi2sdq	%rax, %xmm10
	movl	%edx, 656(%rdi)
	addsd	%xmm4, %xmm10
	cvttsd2siq	%xmm10, %rax
	movsd	504(%rdi), %xmm10
	andl	$4095, %eax
	mulsd	waveform(,%rax,8), %xmm8
	movl	600(%rdi), %eax
	cmpl	$1, %eax
	mulsd	%xmm7, %xmm8
	movapd	%xmm10, %xmm7
	mulsd	%xmm2, %xmm7
	addsd	%xmm1, %xmm8
	cvttsd2siq	%xmm7, %rdx
	movsd	560(%rdi), %xmm7
	movsd	%xmm7, 608(%rdi)
	je	.L2541
	jle	.L5857
	cmpl	$3, %eax
	je	.L2544
	cmpl	$4, %eax
	.p2align 4,,5
	jne	.L2540
	movapd	%xmm4, %xmm7
	movq	$0, 560(%rdi)
.L2540:
	movl	496(%rdi), %edx
	mulsd	%xmm3, %xmm8
	movsd	%xmm7, 552(%rdi)
	mulsd	632(%rdi), %xmm7
	movl	%edx, %eax
	addl	500(%rdi), %edx
	shrl	$16, %eax
	cvtsi2sdq	%rax, %xmm10
	movl	%edx, 496(%rdi)
	addsd	%xmm10, %xmm8
	cvttsd2siq	%xmm8, %rax
	andl	$4095, %eax
	mulsd	waveform(,%rax,8), %xmm7
	movl	440(%rdi), %eax
	cmpl	$1, %eax
	mulsd	%xmm9, %xmm7
	movsd	344(%rdi), %xmm9
	movapd	%xmm9, %xmm8
	mulsd	%xmm2, %xmm8
	cvttsd2siq	%xmm8, %rdx
	movsd	400(%rdi), %xmm8
	movsd	%xmm8, 448(%rdi)
	je	.L2554
	jle	.L5858
	cmpl	$3, %eax
	je	.L2557
	cmpl	$4, %eax
	.p2align 4,,5
	jne	.L2553
	movapd	%xmm4, %xmm8
	movq	$0, 400(%rdi)
.L2553:
	movl	336(%rdi), %edx
	movsd	%xmm8, 392(%rdi)
	mulsd	472(%rdi), %xmm8
	movl	%edx, %eax
	addl	340(%rdi), %edx
	shrl	$16, %eax
	cvtsi2sdq	%rax, %xmm9
	movl	%edx, 336(%rdi)
	addsd	%xmm4, %xmm9
	cvttsd2siq	%xmm9, %rax
	movsd	184(%rdi), %xmm9
	andl	$4095, %eax
	mulsd	waveform(,%rax,8), %xmm8
	movl	280(%rdi), %eax
	cmpl	$1, %eax
	mulsd	%xmm6, %xmm8
	movapd	%xmm9, %xmm6
	mulsd	%xmm2, %xmm6
	cvttsd2siq	%xmm6, %rdx
	movsd	240(%rdi), %xmm6
	movsd	%xmm6, 288(%rdi)
	je	.L2567
	jle	.L5859
	cmpl	$3, %eax
	je	.L2570
	cmpl	$4, %eax
	.p2align 4,,5
	jne	.L2566
	movapd	%xmm4, %xmm6
	movq	$0, 240(%rdi)
.L2566:
	movl	176(%rdi), %edx
	mulsd	%xmm3, %xmm8
	movsd	%xmm6, 232(%rdi)
	movl	%edx, %eax
	shrl	$16, %eax
	cvtsi2sdq	%rax, %xmm3
	addsd	%xmm3, %xmm8
	cvttsd2siq	%xmm8, %rax
	jmp	.L5794
	.p2align 4,,10
	.p2align 3
.L557:
	movsd	824(%rdi), %xmm3
	movl	920(%rdi), %eax
	movsd	.LC21(%rip), %xmm2
	movapd	%xmm3, %xmm4
	movsd	880(%rdi), %xmm10
	cmpl	$1, %eax
	mulsd	%xmm2, %xmm4
	movsd	%xmm10, 928(%rdi)
	cvttsd2siq	%xmm4, %rdx
	je	.L2437
	jle	.L5860
	cmpl	$3, %eax
	je	.L2440
	cmpl	$4, %eax
	.p2align 4,,5
	jne	.L5292
	xorpd	%xmm4, %xmm4
	movsd	%xmm4, 880(%rdi)
	movapd	%xmm4, %xmm10
.L2436:
	movl	816(%rdi), %edx
	movsd	.LC0(%rip), %xmm3
	movsd	%xmm10, 872(%rdi)
	mulsd	%xmm3, %xmm1
	movl	%edx, %eax
	addl	820(%rdi), %edx
	shrl	$16, %eax
	cvtsi2sdq	%rax, %xmm11
	movl	%edx, 816(%rdi)
	addsd	%xmm11, %xmm1
	cvttsd2siq	%xmm1, %rax
	movsd	952(%rdi), %xmm1
	mulsd	%xmm10, %xmm1
	movsd	664(%rdi), %xmm10
	andl	$4095, %eax
	mulsd	waveform(,%rax,8), %xmm1
	movl	760(%rdi), %eax
	cmpl	$1, %eax
	mulsd	%xmm8, %xmm1
	movapd	%xmm10, %xmm8
	mulsd	%xmm2, %xmm8
	cvttsd2siq	%xmm8, %rdx
	movsd	720(%rdi), %xmm8
	movsd	%xmm8, 768(%rdi)
	je	.L2450
	jle	.L5861
	cmpl	$3, %eax
	je	.L2453
	cmpl	$4, %eax
	.p2align 4,,5
	jne	.L2449
	movapd	%xmm4, %xmm8
	movq	$0, 720(%rdi)
.L2449:
	movl	656(%rdi), %edx
	mulsd	%xmm1, %xmm3
	movsd	%xmm8, 712(%rdi)
	mulsd	792(%rdi), %xmm8
	movl	%edx, %eax
	addl	660(%rdi), %edx
	shrl	$16, %eax
	movapd	%xmm3, %xmm11
	cvtsi2sdq	%rax, %xmm10
	movl	%edx, 656(%rdi)
	addsd	%xmm3, %xmm10
	cvttsd2siq	%xmm10, %rax
	andl	$4095, %eax
	mulsd	waveform(,%rax,8), %xmm8
	movl	600(%rdi), %eax
	cmpl	$1, %eax
	mulsd	%xmm7, %xmm8
	movsd	504(%rdi), %xmm7
	movapd	%xmm7, %xmm3
	mulsd	%xmm2, %xmm3
	cvttsd2siq	%xmm3, %rdx
	movsd	560(%rdi), %xmm3
	movsd	%xmm3, 608(%rdi)
	je	.L2463
	jle	.L5862
	cmpl	$3, %eax
	je	.L2466
	cmpl	$4, %eax
	.p2align 4,,5
	jne	.L2462
	movapd	%xmm4, %xmm3
	movq	$0, 560(%rdi)
.L2462:
	movl	496(%rdi), %edx
	movsd	%xmm3, 552(%rdi)
	mulsd	632(%rdi), %xmm3
	movl	%edx, %eax
	addl	500(%rdi), %edx
	shrl	$16, %eax
	cvtsi2sdq	%rax, %xmm7
	movl	%edx, 496(%rdi)
	addsd	%xmm11, %xmm7
	cvttsd2siq	%xmm7, %rax
	andl	$4095, %eax
	mulsd	waveform(,%rax,8), %xmm3
	movl	440(%rdi), %eax
	cmpl	$1, %eax
	mulsd	%xmm9, %xmm3
	movsd	344(%rdi), %xmm9
	movapd	%xmm9, %xmm7
	mulsd	%xmm2, %xmm7
	cvttsd2siq	%xmm7, %rdx
	movsd	400(%rdi), %xmm7
	movsd	%xmm7, 448(%rdi)
	je	.L2476
	jle	.L5863
	cmpl	$3, %eax
	je	.L2479
	cmpl	$4, %eax
	.p2align 4,,5
	jne	.L2475
	movapd	%xmm4, %xmm7
	movq	$0, 400(%rdi)
.L2475:
	movl	336(%rdi), %edx
	movsd	%xmm7, 392(%rdi)
	mulsd	472(%rdi), %xmm7
	movl	%edx, %eax
	addl	340(%rdi), %edx
	shrl	$16, %eax
	cvtsi2sdq	%rax, %xmm9
	movl	%edx, 336(%rdi)
	addsd	%xmm4, %xmm9
	cvttsd2siq	%xmm9, %rax
	movsd	184(%rdi), %xmm9
	andl	$4095, %eax
	mulsd	waveform(,%rax,8), %xmm7
	movl	280(%rdi), %eax
	cmpl	$1, %eax
	mulsd	%xmm6, %xmm7
	movapd	%xmm9, %xmm6
	mulsd	%xmm2, %xmm6
	cvttsd2siq	%xmm6, %rdx
	movsd	240(%rdi), %xmm6
	movsd	%xmm6, 288(%rdi)
	je	.L2489
	jle	.L5864
	cmpl	$3, %eax
	je	.L2492
	cmpl	$4, %eax
	.p2align 4,,5
	jne	.L2488
	movapd	%xmm4, %xmm6
	movq	$0, 240(%rdi)
.L2488:
	movl	176(%rdi), %edx
	movsd	%xmm6, 232(%rdi)
	mulsd	312(%rdi), %xmm6
	movl	%edx, %eax
	addl	180(%rdi), %edx
	shrl	$16, %eax
	cvtsi2sdq	%rax, %xmm9
	movl	%edx, 176(%rdi)
	addsd	%xmm4, %xmm9
	cvttsd2siq	%xmm9, %rax
	movsd	24(%rdi), %xmm9
	mulsd	%xmm9, %xmm2
	cvttsd2siq	%xmm2, %rdx
	andl	$4095, %eax
	mulsd	waveform(,%rax,8), %xmm6
	movl	120(%rdi), %eax
	cmpl	$1, %eax
	mulsd	%xmm0, %xmm6
	movsd	80(%rdi), %xmm0
	movsd	%xmm0, 128(%rdi)
	je	.L2502
	jle	.L5865
	cmpl	$3, %eax
	je	.L2505
	cmpl	$4, %eax
	.p2align 4,,5
	jne	.L2501
	movapd	%xmm4, %xmm0
	movq	$0, 80(%rdi)
.L2501:
	movl	16(%rdi), %edx
	movsd	%xmm0, 72(%rdi)
	mulsd	152(%rdi), %xmm0
	movl	%edx, %eax
	addl	20(%rdi), %edx
	shrl	$16, %eax
	cvtsi2sdq	%rax, %xmm2
	movl	%edx, 16(%rdi)
	addsd	%xmm4, %xmm2
	cvttsd2siq	%xmm2, %rax
	andl	$4095, %eax
	mulsd	waveform(,%rax,8), %xmm0
	mulsd	%xmm5, %xmm0
	addsd	%xmm6, %xmm0
	addsd	%xmm7, %xmm0
	addsd	%xmm3, %xmm0
	addsd	%xmm8, %xmm0
	divsd	.LC23(%rip), %xmm0
	jmp	.L531
	.p2align 4,,10
	.p2align 3
.L556:
	movsd	824(%rdi), %xmm3
	movl	920(%rdi), %eax
	movsd	.LC21(%rip), %xmm2
	movapd	%xmm3, %xmm4
	movsd	880(%rdi), %xmm10
	cmpl	$1, %eax
	mulsd	%xmm2, %xmm4
	movsd	%xmm10, 928(%rdi)
	cvttsd2siq	%xmm4, %rdx
	je	.L2359
	jle	.L5866
	cmpl	$3, %eax
	je	.L2362
	cmpl	$4, %eax
	.p2align 4,,5
	jne	.L5268
	xorpd	%xmm4, %xmm4
	movsd	%xmm4, 880(%rdi)
	movapd	%xmm4, %xmm10
.L2358:
	movl	816(%rdi), %edx
	movsd	.LC0(%rip), %xmm3
	movsd	%xmm10, 872(%rdi)
	mulsd	%xmm3, %xmm1
	movl	%edx, %eax
	addl	820(%rdi), %edx
	shrl	$16, %eax
	cvtsi2sdq	%rax, %xmm11
	movl	%edx, 816(%rdi)
	addsd	%xmm11, %xmm1
	cvttsd2siq	%xmm1, %rax
	movsd	952(%rdi), %xmm1
	mulsd	%xmm10, %xmm1
	movsd	664(%rdi), %xmm10
	andl	$4095, %eax
	mulsd	waveform(,%rax,8), %xmm1
	movl	760(%rdi), %eax
	cmpl	$1, %eax
	mulsd	%xmm8, %xmm1
	movapd	%xmm10, %xmm8
	mulsd	%xmm2, %xmm8
	cvttsd2siq	%xmm8, %rdx
	movsd	720(%rdi), %xmm8
	movsd	%xmm8, 768(%rdi)
	je	.L2372
	jle	.L5867
	cmpl	$3, %eax
	je	.L2375
	cmpl	$4, %eax
	.p2align 4,,5
	jne	.L2371
	movapd	%xmm4, %xmm8
	movq	$0, 720(%rdi)
.L2371:
	movl	656(%rdi), %edx
	mulsd	%xmm1, %xmm3
	movsd	%xmm8, 712(%rdi)
	mulsd	792(%rdi), %xmm8
	movl	%edx, %eax
	addl	660(%rdi), %edx
	shrl	$16, %eax
	movapd	%xmm3, %xmm10
	cvtsi2sdq	%rax, %xmm3
	movl	%edx, 656(%rdi)
	addsd	%xmm10, %xmm3
	cvttsd2siq	%xmm3, %rax
	movsd	504(%rdi), %xmm3
	andl	$4095, %eax
	mulsd	waveform(,%rax,8), %xmm8
	movl	600(%rdi), %eax
	cmpl	$1, %eax
	mulsd	%xmm7, %xmm8
	movapd	%xmm3, %xmm7
	mulsd	%xmm2, %xmm7
	cvttsd2siq	%xmm7, %rdx
	movsd	560(%rdi), %xmm7
	movsd	%xmm7, 608(%rdi)
	je	.L2385
	jle	.L5868
	cmpl	$3, %eax
	je	.L2388
	cmpl	$4, %eax
	.p2align 4,,5
	jne	.L2384
	movapd	%xmm4, %xmm7
	movq	$0, 560(%rdi)
.L2384:
	movl	496(%rdi), %edx
	movsd	%xmm7, 552(%rdi)
	mulsd	632(%rdi), %xmm7
	movl	%edx, %eax
	addl	500(%rdi), %edx
	shrl	$16, %eax
	cvtsi2sdq	%rax, %xmm3
	movl	%edx, 496(%rdi)
	addsd	%xmm10, %xmm3
	cvttsd2siq	%xmm3, %rax
	andl	$4095, %eax
	mulsd	waveform(,%rax,8), %xmm7
	movl	440(%rdi), %eax
	cmpl	$1, %eax
	mulsd	%xmm9, %xmm7
	movsd	344(%rdi), %xmm9
	movapd	%xmm9, %xmm3
	mulsd	%xmm2, %xmm3
	cvttsd2siq	%xmm3, %rdx
	movsd	400(%rdi), %xmm3
	movsd	%xmm3, 448(%rdi)
	je	.L2398
	jle	.L5869
	cmpl	$3, %eax
	je	.L2401
	cmpl	$4, %eax
	.p2align 4,,5
	jne	.L2397
	movapd	%xmm4, %xmm3
	movq	$0, 400(%rdi)
.L2397:
	movl	336(%rdi), %edx
	movsd	%xmm3, 392(%rdi)
	mulsd	472(%rdi), %xmm3
	movl	%edx, %eax
	addl	340(%rdi), %edx
	shrl	$16, %eax
	cvtsi2sdq	%rax, %xmm9
	movl	%edx, 336(%rdi)
	addsd	%xmm10, %xmm9
	cvttsd2siq	%xmm9, %rax
	movsd	184(%rdi), %xmm9
	andl	$4095, %eax
	mulsd	waveform(,%rax,8), %xmm3
	movl	280(%rdi), %eax
	cmpl	$1, %eax
	mulsd	%xmm6, %xmm3
	movapd	%xmm9, %xmm6
	mulsd	%xmm2, %xmm6
	cvttsd2siq	%xmm6, %rdx
	movsd	240(%rdi), %xmm6
	movsd	%xmm6, 288(%rdi)
	je	.L2411
	jle	.L5870
	cmpl	$3, %eax
	je	.L2414
	cmpl	$4, %eax
	.p2align 4,,5
	jne	.L2410
	movapd	%xmm4, %xmm6
	movq	$0, 240(%rdi)
.L2410:
	movl	176(%rdi), %edx
	movsd	%xmm6, 232(%rdi)
	mulsd	312(%rdi), %xmm6
	movl	%edx, %eax
	addl	180(%rdi), %edx
	shrl	$16, %eax
	cvtsi2sdq	%rax, %xmm9
	movl	%edx, 176(%rdi)
	addsd	%xmm4, %xmm9
	cvttsd2siq	%xmm9, %rax
	movsd	24(%rdi), %xmm9
	mulsd	%xmm9, %xmm2
	cvttsd2siq	%xmm2, %rdx
	andl	$4095, %eax
	mulsd	waveform(,%rax,8), %xmm6
	movl	120(%rdi), %eax
	cmpl	$1, %eax
	mulsd	%xmm0, %xmm6
	movsd	80(%rdi), %xmm0
	movsd	%xmm0, 128(%rdi)
	je	.L2424
	jle	.L5871
	cmpl	$3, %eax
	je	.L2427
	cmpl	$4, %eax
	.p2align 4,,5
	jne	.L2423
	movapd	%xmm4, %xmm0
	movq	$0, 80(%rdi)
.L2423:
	movl	16(%rdi), %edx
	movsd	%xmm0, 72(%rdi)
	mulsd	152(%rdi), %xmm0
	movl	%edx, %eax
	addl	20(%rdi), %edx
	shrl	$16, %eax
	cvtsi2sdq	%rax, %xmm2
	movl	%edx, 16(%rdi)
	addsd	%xmm4, %xmm2
	cvttsd2siq	%xmm2, %rax
	andl	$4095, %eax
	mulsd	waveform(,%rax,8), %xmm0
	mulsd	%xmm5, %xmm0
	addsd	%xmm6, %xmm0
	addsd	%xmm3, %xmm0
	addsd	%xmm7, %xmm0
	addsd	%xmm8, %xmm0
	divsd	.LC23(%rip), %xmm0
	jmp	.L531
	.p2align 4,,10
	.p2align 3
.L555:
	movsd	824(%rdi), %xmm3
	movl	920(%rdi), %eax
	movsd	.LC21(%rip), %xmm2
	movapd	%xmm3, %xmm4
	movsd	880(%rdi), %xmm10
	cmpl	$1, %eax
	mulsd	%xmm2, %xmm4
	movsd	%xmm10, 928(%rdi)
	cvttsd2siq	%xmm4, %rdx
	je	.L2281
	jle	.L5872
	cmpl	$3, %eax
	je	.L2284
	cmpl	$4, %eax
	.p2align 4,,5
	jne	.L5244
	xorpd	%xmm4, %xmm4
	movsd	%xmm4, 880(%rdi)
	movapd	%xmm4, %xmm10
.L2280:
	movl	816(%rdi), %edx
	movsd	.LC0(%rip), %xmm3
	movsd	%xmm10, 872(%rdi)
	mulsd	%xmm3, %xmm1
	movl	%edx, %eax
	addl	820(%rdi), %edx
	shrl	$16, %eax
	cvtsi2sdq	%rax, %xmm11
	movl	%edx, 816(%rdi)
	addsd	%xmm11, %xmm1
	cvttsd2siq	%xmm1, %rax
	movsd	952(%rdi), %xmm1
	mulsd	%xmm10, %xmm1
	movsd	664(%rdi), %xmm10
	andl	$4095, %eax
	mulsd	waveform(,%rax,8), %xmm1
	movl	760(%rdi), %eax
	cmpl	$1, %eax
	mulsd	%xmm8, %xmm1
	movapd	%xmm10, %xmm8
	mulsd	%xmm2, %xmm8
	cvttsd2siq	%xmm8, %rdx
	movsd	720(%rdi), %xmm8
	movsd	%xmm8, 768(%rdi)
	je	.L2294
	jle	.L5873
	cmpl	$3, %eax
	je	.L2297
	cmpl	$4, %eax
	.p2align 4,,5
	jne	.L2293
	movapd	%xmm4, %xmm8
	movq	$0, 720(%rdi)
.L2293:
	movl	656(%rdi), %edx
	movapd	%xmm1, %xmm11
	movsd	%xmm8, 712(%rdi)
	mulsd	792(%rdi), %xmm8
	mulsd	%xmm3, %xmm11
	movl	%edx, %eax
	addl	660(%rdi), %edx
	shrl	$16, %eax
	cvtsi2sdq	%rax, %xmm10
	movl	%edx, 656(%rdi)
	addsd	%xmm11, %xmm10
	cvttsd2siq	%xmm10, %rax
	movsd	504(%rdi), %xmm10
	andl	$4095, %eax
	mulsd	waveform(,%rax,8), %xmm8
	movl	600(%rdi), %eax
	cmpl	$1, %eax
	mulsd	%xmm7, %xmm8
	movapd	%xmm10, %xmm7
	mulsd	%xmm2, %xmm7
	cvttsd2siq	%xmm7, %rdx
	movsd	560(%rdi), %xmm7
	movsd	%xmm7, 608(%rdi)
	je	.L2307
	jle	.L5874
	cmpl	$3, %eax
	je	.L2310
	cmpl	$4, %eax
	.p2align 4,,5
	jne	.L2306
	movapd	%xmm4, %xmm7
	movq	$0, 560(%rdi)
.L2306:
	movl	496(%rdi), %edx
	movsd	%xmm7, 552(%rdi)
	mulsd	632(%rdi), %xmm7
	movl	%edx, %eax
	addl	500(%rdi), %edx
	shrl	$16, %eax
	cvtsi2sdq	%rax, %xmm10
	movl	%edx, 496(%rdi)
	addsd	%xmm11, %xmm10
	cvttsd2siq	%xmm10, %rax
	movsd	344(%rdi), %xmm10
	andl	$4095, %eax
	mulsd	waveform(,%rax,8), %xmm7
	movl	440(%rdi), %eax
	cmpl	$1, %eax
	mulsd	%xmm9, %xmm7
	movapd	%xmm10, %xmm9
	mulsd	%xmm2, %xmm9
	cvttsd2siq	%xmm9, %rdx
	movsd	400(%rdi), %xmm9
	movsd	%xmm9, 448(%rdi)
	je	.L2320
	jle	.L5875
	cmpl	$3, %eax
	je	.L2323
	cmpl	$4, %eax
	.p2align 4,,5
	jne	.L2319
	movapd	%xmm4, %xmm9
	movq	$0, 400(%rdi)
.L2319:
	movl	336(%rdi), %edx
	movsd	%xmm9, 392(%rdi)
	mulsd	472(%rdi), %xmm9
	movl	%edx, %eax
	addl	340(%rdi), %edx
	shrl	$16, %eax
	cvtsi2sdq	%rax, %xmm10
	movl	%edx, 336(%rdi)
	addsd	%xmm4, %xmm10
	cvttsd2siq	%xmm10, %rax
	movsd	184(%rdi), %xmm10
	andl	$4095, %eax
	mulsd	waveform(,%rax,8), %xmm9
	movl	280(%rdi), %eax
	cmpl	$1, %eax
	mulsd	%xmm6, %xmm9
	movapd	%xmm10, %xmm6
	mulsd	%xmm2, %xmm6
	cvttsd2siq	%xmm6, %rdx
	movsd	240(%rdi), %xmm6
	movsd	%xmm6, 288(%rdi)
	je	.L2333
	jle	.L5876
	cmpl	$3, %eax
	je	.L2336
	cmpl	$4, %eax
	.p2align 4,,5
	jne	.L2332
	movapd	%xmm4, %xmm6
	movq	$0, 240(%rdi)
.L2332:
	movl	176(%rdi), %edx
	mulsd	%xmm3, %xmm9
	movsd	%xmm6, 232(%rdi)
	mulsd	312(%rdi), %xmm6
	movl	%edx, %eax
	addl	180(%rdi), %edx
	shrl	$16, %eax
	cvtsi2sdq	%rax, %xmm3
	movl	%edx, 176(%rdi)
	addsd	%xmm3, %xmm9
	cvttsd2siq	%xmm9, %rax
	andl	$4095, %eax
	movsd	waveform(,%rax,8), %xmm3
	movl	120(%rdi), %eax
	mulsd	%xmm6, %xmm3
	movsd	24(%rdi), %xmm6
	cmpl	$1, %eax
	mulsd	%xmm6, %xmm2
	mulsd	%xmm0, %xmm3
	movsd	80(%rdi), %xmm0
	cvttsd2siq	%xmm2, %rdx
	movsd	%xmm0, 128(%rdi)
	je	.L2346
	jle	.L5877
	cmpl	$3, %eax
	je	.L2349
	cmpl	$4, %eax
	.p2align 4,,5
	jne	.L2345
	movapd	%xmm4, %xmm0
	movq	$0, 80(%rdi)
.L2345:
	movl	16(%rdi), %edx
	movsd	%xmm0, 72(%rdi)
	mulsd	152(%rdi), %xmm0
	movl	%edx, %eax
	addl	20(%rdi), %edx
	shrl	$16, %eax
	cvtsi2sdq	%rax, %xmm2
	movl	%edx, 16(%rdi)
	addsd	%xmm4, %xmm2
	cvttsd2siq	%xmm2, %rax
	andl	$4095, %eax
	mulsd	waveform(,%rax,8), %xmm0
	mulsd	%xmm5, %xmm0
	addsd	%xmm3, %xmm0
	addsd	%xmm7, %xmm0
	addsd	%xmm8, %xmm0
	mulsd	.LC22(%rip), %xmm0
	jmp	.L531
	.p2align 4,,10
	.p2align 3
.L554:
	movsd	824(%rdi), %xmm3
	movl	920(%rdi), %eax
	movsd	.LC21(%rip), %xmm2
	movapd	%xmm3, %xmm4
	movsd	880(%rdi), %xmm10
	cmpl	$1, %eax
	mulsd	%xmm2, %xmm4
	movsd	%xmm10, 928(%rdi)
	cvttsd2siq	%xmm4, %rdx
	je	.L2203
	jle	.L5878
	cmpl	$3, %eax
	je	.L2206
	cmpl	$4, %eax
	.p2align 4,,5
	jne	.L5220
	xorpd	%xmm4, %xmm4
	movsd	%xmm4, 880(%rdi)
	movapd	%xmm4, %xmm10
.L2202:
	movl	816(%rdi), %edx
	movsd	.LC0(%rip), %xmm3
	movsd	%xmm10, 872(%rdi)
	mulsd	%xmm3, %xmm1
	movl	%edx, %eax
	addl	820(%rdi), %edx
	shrl	$16, %eax
	cvtsi2sdq	%rax, %xmm11
	movl	%edx, 816(%rdi)
	addsd	%xmm11, %xmm1
	cvttsd2siq	%xmm1, %rax
	movsd	952(%rdi), %xmm1
	mulsd	%xmm10, %xmm1
	movsd	664(%rdi), %xmm10
	andl	$4095, %eax
	mulsd	waveform(,%rax,8), %xmm1
	movl	760(%rdi), %eax
	cmpl	$1, %eax
	mulsd	%xmm8, %xmm1
	movapd	%xmm10, %xmm8
	mulsd	%xmm2, %xmm8
	cvttsd2siq	%xmm8, %rdx
	movsd	720(%rdi), %xmm8
	movsd	%xmm8, 768(%rdi)
	je	.L2216
	jle	.L5879
	cmpl	$3, %eax
	je	.L2219
	cmpl	$4, %eax
	.p2align 4,,5
	jne	.L2215
	movapd	%xmm4, %xmm8
	movq	$0, 720(%rdi)
.L2215:
	movl	656(%rdi), %edx
	movapd	%xmm1, %xmm11
	movsd	%xmm8, 712(%rdi)
	mulsd	792(%rdi), %xmm8
	mulsd	%xmm3, %xmm11
	movl	%edx, %eax
	addl	660(%rdi), %edx
	shrl	$16, %eax
	cvtsi2sdq	%rax, %xmm10
	movl	%edx, 656(%rdi)
	addsd	%xmm11, %xmm10
	cvttsd2siq	%xmm10, %rax
	movsd	504(%rdi), %xmm10
	andl	$4095, %eax
	mulsd	waveform(,%rax,8), %xmm8
	movl	600(%rdi), %eax
	cmpl	$1, %eax
	mulsd	%xmm7, %xmm8
	movapd	%xmm10, %xmm7
	mulsd	%xmm2, %xmm7
	cvttsd2siq	%xmm7, %rdx
	movsd	560(%rdi), %xmm7
	movsd	%xmm7, 608(%rdi)
	je	.L2229
	jle	.L5880
	cmpl	$3, %eax
	je	.L2232
	cmpl	$4, %eax
	.p2align 4,,5
	jne	.L2228
	movapd	%xmm4, %xmm7
	movq	$0, 560(%rdi)
.L2228:
	movl	496(%rdi), %edx
	movsd	%xmm7, 552(%rdi)
	mulsd	632(%rdi), %xmm7
	movl	%edx, %eax
	addl	500(%rdi), %edx
	shrl	$16, %eax
	cvtsi2sdq	%rax, %xmm10
	movl	%edx, 496(%rdi)
	addsd	%xmm11, %xmm10
	cvttsd2siq	%xmm10, %rax
	movsd	344(%rdi), %xmm10
	andl	$4095, %eax
	mulsd	waveform(,%rax,8), %xmm7
	movl	440(%rdi), %eax
	cmpl	$1, %eax
	mulsd	%xmm9, %xmm7
	movapd	%xmm10, %xmm9
	mulsd	%xmm2, %xmm9
	cvttsd2siq	%xmm9, %rdx
	movsd	400(%rdi), %xmm9
	movsd	%xmm9, 448(%rdi)
	je	.L2242
	jle	.L5881
	cmpl	$3, %eax
	je	.L2245
	cmpl	$4, %eax
	.p2align 4,,5
	jne	.L2241
	movapd	%xmm4, %xmm9
	movq	$0, 400(%rdi)
.L2241:
	movl	336(%rdi), %edx
	movsd	%xmm9, 392(%rdi)
	mulsd	472(%rdi), %xmm9
	movl	%edx, %eax
	addl	340(%rdi), %edx
	shrl	$16, %eax
	cvtsi2sdq	%rax, %xmm10
	movl	%edx, 336(%rdi)
	addsd	%xmm11, %xmm10
	cvttsd2siq	%xmm10, %rax
	movsd	184(%rdi), %xmm10
	andl	$4095, %eax
	mulsd	waveform(,%rax,8), %xmm9
	movl	280(%rdi), %eax
	cmpl	$1, %eax
	mulsd	%xmm6, %xmm9
	movapd	%xmm10, %xmm6
	mulsd	%xmm2, %xmm6
	cvttsd2siq	%xmm6, %rdx
	movsd	240(%rdi), %xmm6
	movsd	%xmm6, 288(%rdi)
	je	.L2255
	jle	.L5882
	cmpl	$3, %eax
	je	.L2258
	cmpl	$4, %eax
	.p2align 4,,5
	jne	.L2254
	movapd	%xmm4, %xmm6
	movq	$0, 240(%rdi)
.L2254:
	movl	176(%rdi), %edx
	movsd	%xmm6, 232(%rdi)
	mulsd	312(%rdi), %xmm6
	movl	%edx, %eax
	addl	180(%rdi), %edx
	shrl	$16, %eax
	cvtsi2sdq	%rax, %xmm10
	movl	%edx, 176(%rdi)
	addsd	%xmm4, %xmm10
	cvttsd2siq	%xmm10, %rax
	movsd	24(%rdi), %xmm10
	mulsd	%xmm10, %xmm2
	cvttsd2siq	%xmm2, %rdx
	andl	$4095, %eax
	mulsd	waveform(,%rax,8), %xmm6
	movl	120(%rdi), %eax
	cmpl	$1, %eax
	mulsd	%xmm0, %xmm6
	movsd	80(%rdi), %xmm0
	movsd	%xmm0, 128(%rdi)
	je	.L2268
	jle	.L5883
	cmpl	$3, %eax
	je	.L2271
	cmpl	$4, %eax
	.p2align 4,,5
	jne	.L2267
	movapd	%xmm4, %xmm0
	movq	$0, 80(%rdi)
.L2267:
	movl	16(%rdi), %edx
	mulsd	%xmm6, %xmm3
	movsd	%xmm0, 72(%rdi)
	mulsd	152(%rdi), %xmm0
	movl	%edx, %eax
	addl	20(%rdi), %edx
	shrl	$16, %eax
	cvtsi2sdq	%rax, %xmm2
	movl	%edx, 16(%rdi)
	addsd	%xmm2, %xmm3
	cvttsd2siq	%xmm3, %rax
	andl	$4095, %eax
	mulsd	waveform(,%rax,8), %xmm0
	mulsd	%xmm5, %xmm0
	addsd	%xmm9, %xmm0
	addsd	%xmm7, %xmm0
	addsd	%xmm8, %xmm0
	mulsd	.LC22(%rip), %xmm0
	jmp	.L531
	.p2align 4,,10
	.p2align 3
.L553:
	movsd	824(%rdi), %xmm3
	movl	920(%rdi), %eax
	movsd	.LC21(%rip), %xmm2
	movapd	%xmm3, %xmm4
	movsd	880(%rdi), %xmm10
	cmpl	$1, %eax
	mulsd	%xmm2, %xmm4
	movsd	%xmm10, 928(%rdi)
	cvttsd2siq	%xmm4, %rdx
	je	.L2125
	jle	.L5884
	cmpl	$3, %eax
	je	.L2128
	cmpl	$4, %eax
	.p2align 4,,5
	jne	.L5196
	xorpd	%xmm4, %xmm4
	movsd	%xmm4, 880(%rdi)
	movapd	%xmm4, %xmm10
.L2124:
	movl	816(%rdi), %edx
	movsd	%xmm10, 872(%rdi)
	mulsd	952(%rdi), %xmm10
	movl	%edx, %eax
	addl	820(%rdi), %edx
	shrl	$16, %eax
	cvtsi2sdq	%rax, %xmm3
	movl	%edx, 816(%rdi)
	addsd	%xmm4, %xmm3
	cvttsd2siq	%xmm3, %rax
	movsd	664(%rdi), %xmm3
	andl	$4095, %eax
	mulsd	waveform(,%rax,8), %xmm10
	movl	760(%rdi), %eax
	cmpl	$1, %eax
	mulsd	%xmm8, %xmm10
	movapd	%xmm3, %xmm8
	mulsd	%xmm2, %xmm8
	cvttsd2siq	%xmm8, %rdx
	movsd	720(%rdi), %xmm8
	movsd	%xmm8, 768(%rdi)
	je	.L2138
	jle	.L5885
	cmpl	$3, %eax
	je	.L2141
	cmpl	$4, %eax
	.p2align 4,,5
	jne	.L2137
	movapd	%xmm4, %xmm8
	movq	$0, 720(%rdi)
.L2137:
	movl	656(%rdi), %edx
	movsd	.LC0(%rip), %xmm3
	movsd	%xmm8, 712(%rdi)
	mulsd	792(%rdi), %xmm8
	mulsd	%xmm3, %xmm10
	movl	%edx, %eax
	addl	660(%rdi), %edx
	shrl	$16, %eax
	cvtsi2sdq	%rax, %xmm11
	movl	%edx, 656(%rdi)
	addsd	%xmm10, %xmm11
	cvttsd2siq	%xmm11, %rax
	movsd	504(%rdi), %xmm11
	andl	$4095, %eax
	mulsd	waveform(,%rax,8), %xmm8
	movl	600(%rdi), %eax
	cmpl	$1, %eax
	mulsd	%xmm7, %xmm8
	movapd	%xmm11, %xmm7
	mulsd	%xmm2, %xmm7
	cvttsd2siq	%xmm7, %rdx
	movsd	560(%rdi), %xmm7
	movsd	%xmm7, 608(%rdi)
	je	.L2151
	jle	.L5886
	cmpl	$3, %eax
	je	.L2154
	cmpl	$4, %eax
	.p2align 4,,5
	jne	.L2150
	movapd	%xmm4, %xmm7
	movq	$0, 560(%rdi)
.L2150:
	movl	496(%rdi), %edx
	movsd	%xmm7, 552(%rdi)
	mulsd	632(%rdi), %xmm7
	movl	%edx, %eax
	addl	500(%rdi), %edx
	shrl	$16, %eax
	cvtsi2sdq	%rax, %xmm11
	movl	%edx, 496(%rdi)
	addsd	%xmm10, %xmm11
	movsd	344(%rdi), %xmm10
	cvttsd2siq	%xmm11, %rax
	andl	$4095, %eax
	mulsd	waveform(,%rax,8), %xmm7
	movl	440(%rdi), %eax
	cmpl	$1, %eax
	mulsd	%xmm9, %xmm7
	movapd	%xmm10, %xmm9
	mulsd	%xmm2, %xmm9
	cvttsd2siq	%xmm9, %rdx
	movsd	400(%rdi), %xmm9
	movsd	%xmm9, 448(%rdi)
	je	.L2164
	jle	.L5887
	cmpl	$3, %eax
	je	.L2167
	cmpl	$4, %eax
	.p2align 4,,5
	jne	.L2163
	movapd	%xmm4, %xmm9
	movq	$0, 400(%rdi)
.L2163:
	movl	336(%rdi), %edx
	mulsd	%xmm3, %xmm1
	movsd	%xmm9, 392(%rdi)
	movl	%edx, %eax
	addl	340(%rdi), %edx
	shrl	$16, %eax
	cvtsi2sdq	%rax, %xmm10
	movl	%edx, 336(%rdi)
	addsd	%xmm10, %xmm1
	cvttsd2siq	%xmm1, %rax
	movsd	472(%rdi), %xmm1
	mulsd	%xmm9, %xmm1
	movsd	184(%rdi), %xmm9
	andl	$4095, %eax
	mulsd	waveform(,%rax,8), %xmm1
	movl	280(%rdi), %eax
	cmpl	$1, %eax
	mulsd	%xmm6, %xmm1
	movapd	%xmm9, %xmm6
	mulsd	%xmm2, %xmm6
	cvttsd2siq	%xmm6, %rdx
	movsd	240(%rdi), %xmm6
	movsd	%xmm6, 288(%rdi)
	je	.L2177
	jle	.L5888
	cmpl	$3, %eax
	je	.L2180
	cmpl	$4, %eax
	.p2align 4,,5
	jne	.L2176
	movapd	%xmm4, %xmm6
	movq	$0, 240(%rdi)
.L2176:
	movl	176(%rdi), %edx
	mulsd	%xmm1, %xmm3
	movsd	%xmm6, 232(%rdi)
	mulsd	312(%rdi), %xmm6
	movl	%edx, %eax
	addl	180(%rdi), %edx
	shrl	$16, %eax
	cvtsi2sdq	%rax, %xmm9
	movl	%edx, 176(%rdi)
	addsd	%xmm3, %xmm9
	cvttsd2siq	%xmm9, %rax
	movsd	24(%rdi), %xmm9
	mulsd	%xmm9, %xmm2
	cvttsd2siq	%xmm2, %rdx
	andl	$4095, %eax
	mulsd	waveform(,%rax,8), %xmm6
	movl	120(%rdi), %eax
	cmpl	$1, %eax
	mulsd	%xmm0, %xmm6
	movsd	80(%rdi), %xmm0
	movsd	%xmm0, 128(%rdi)
	je	.L2190
	jle	.L5889
	cmpl	$3, %eax
	je	.L2193
	cmpl	$4, %eax
	.p2align 4,,5
	jne	.L2189
	movapd	%xmm4, %xmm0
	movq	$0, 80(%rdi)
.L2189:
	movl	16(%rdi), %edx
	movsd	%xmm0, 72(%rdi)
	mulsd	152(%rdi), %xmm0
	movl	%edx, %eax
	addl	20(%rdi), %edx
	shrl	$16, %eax
	cvtsi2sdq	%rax, %xmm2
	movl	%edx, 16(%rdi)
	addsd	%xmm3, %xmm2
	cvttsd2siq	%xmm2, %rax
	andl	$4095, %eax
	mulsd	waveform(,%rax,8), %xmm0
	mulsd	%xmm5, %xmm0
	addsd	%xmm6, %xmm0
	addsd	%xmm7, %xmm0
	addsd	%xmm8, %xmm0
	mulsd	.LC22(%rip), %xmm0
	jmp	.L531
	.p2align 4,,10
	.p2align 3
.L552:
	movsd	824(%rdi), %xmm4
	movl	920(%rdi), %eax
	movsd	.LC21(%rip), %xmm2
	movapd	%xmm4, %xmm3
	cmpl	$1, %eax
	mulsd	%xmm2, %xmm3
	cvttsd2siq	%xmm3, %rdx
	movsd	880(%rdi), %xmm3
	movsd	%xmm3, 928(%rdi)
	je	.L2047
	jle	.L5890
	cmpl	$3, %eax
	je	.L2050
	cmpl	$4, %eax
	.p2align 4,,5
	jne	.L5172
	xorpd	%xmm4, %xmm4
	movsd	%xmm4, 880(%rdi)
	movapd	%xmm4, %xmm3
.L2046:
	movl	816(%rdi), %edx
	movsd	%xmm3, 872(%rdi)
	mulsd	952(%rdi), %xmm3
	movl	%edx, %eax
	addl	820(%rdi), %edx
	shrl	$16, %eax
	cvtsi2sdq	%rax, %xmm10
	movl	%edx, 816(%rdi)
	addsd	%xmm4, %xmm10
	cvttsd2siq	%xmm10, %rax
	movsd	664(%rdi), %xmm10
	andl	$4095, %eax
	mulsd	waveform(,%rax,8), %xmm3
	movl	760(%rdi), %eax
	cmpl	$1, %eax
	mulsd	%xmm8, %xmm3
	movapd	%xmm10, %xmm8
	mulsd	%xmm2, %xmm8
	cvttsd2siq	%xmm8, %rdx
	movsd	720(%rdi), %xmm8
	movsd	%xmm8, 768(%rdi)
	je	.L2060
	jle	.L5891
	cmpl	$3, %eax
	je	.L2063
	cmpl	$4, %eax
	.p2align 4,,5
	jne	.L2059
	movapd	%xmm4, %xmm8
	movq	$0, 720(%rdi)
.L2059:
	movl	656(%rdi), %edx
	movsd	%xmm8, 712(%rdi)
	mulsd	792(%rdi), %xmm8
	movl	%edx, %eax
	addl	660(%rdi), %edx
	shrl	$16, %eax
	cvtsi2sdq	%rax, %xmm10
	movl	%edx, 656(%rdi)
	addsd	%xmm4, %xmm10
	cvttsd2siq	%xmm10, %rax
	andl	$4095, %eax
	mulsd	waveform(,%rax,8), %xmm8
	movl	600(%rdi), %eax
	cmpl	$1, %eax
	mulsd	%xmm7, %xmm8
	addsd	%xmm3, %xmm8
	movsd	504(%rdi), %xmm3
	movapd	%xmm3, %xmm7
	mulsd	%xmm2, %xmm7
	cvttsd2siq	%xmm7, %rdx
	movsd	560(%rdi), %xmm7
	movsd	%xmm7, 608(%rdi)
	je	.L2073
	jle	.L5892
	cmpl	$3, %eax
	je	.L2076
	cmpl	$4, %eax
	.p2align 4,,5
	jne	.L2072
	movapd	%xmm4, %xmm7
	movq	$0, 560(%rdi)
.L2072:
	movl	496(%rdi), %edx
	movsd	.LC0(%rip), %xmm3
	movsd	%xmm7, 552(%rdi)
	mulsd	632(%rdi), %xmm7
	mulsd	%xmm3, %xmm8
	movl	%edx, %eax
	addl	500(%rdi), %edx
	shrl	$16, %eax
	cvtsi2sdq	%rax, %xmm10
	movl	%edx, 496(%rdi)
	addsd	%xmm10, %xmm8
	cvttsd2siq	%xmm8, %rax
	andl	$4095, %eax
	mulsd	waveform(,%rax,8), %xmm7
	movl	440(%rdi), %eax
	cmpl	$1, %eax
	mulsd	%xmm9, %xmm7
	movsd	344(%rdi), %xmm9
	movapd	%xmm9, %xmm8
	mulsd	%xmm2, %xmm8
	cvttsd2siq	%xmm8, %rdx
	movsd	400(%rdi), %xmm8
	movsd	%xmm8, 448(%rdi)
	je	.L2086
	jle	.L5893
	cmpl	$3, %eax
	je	.L2089
	cmpl	$4, %eax
	.p2align 4,,5
	jne	.L2085
	movapd	%xmm4, %xmm8
	movq	$0, 400(%rdi)
.L2085:
	movl	336(%rdi), %edx
	mulsd	%xmm3, %xmm1
	movsd	%xmm8, 392(%rdi)
	movl	%edx, %eax
	addl	340(%rdi), %edx
	shrl	$16, %eax
	cvtsi2sdq	%rax, %xmm9
	movl	%edx, 336(%rdi)
	addsd	%xmm9, %xmm1
	cvttsd2siq	%xmm1, %rax
	movsd	472(%rdi), %xmm1
	mulsd	%xmm8, %xmm1
	movsd	184(%rdi), %xmm8
	andl	$4095, %eax
	mulsd	waveform(,%rax,8), %xmm1
	movl	280(%rdi), %eax
	cmpl	$1, %eax
	mulsd	%xmm6, %xmm1
	movapd	%xmm8, %xmm6
	mulsd	%xmm2, %xmm6
	cvttsd2siq	%xmm6, %rdx
	movsd	240(%rdi), %xmm6
	movsd	%xmm6, 288(%rdi)
	je	.L2099
	jle	.L5894
	cmpl	$3, %eax
	je	.L2102
	cmpl	$4, %eax
	.p2align 4,,5
	jne	.L2098
	movapd	%xmm4, %xmm6
	movq	$0, 240(%rdi)
.L2098:
	movl	176(%rdi), %edx
	mulsd	%xmm1, %xmm3
	movsd	%xmm6, 232(%rdi)
	mulsd	312(%rdi), %xmm6
	movl	%edx, %eax
	addl	180(%rdi), %edx
	shrl	$16, %eax
	cvtsi2sdq	%rax, %xmm8
	movl	%edx, 176(%rdi)
	addsd	%xmm3, %xmm8
	cvttsd2siq	%xmm8, %rax
	movsd	24(%rdi), %xmm8
	mulsd	%xmm8, %xmm2
	cvttsd2siq	%xmm2, %rdx
	andl	$4095, %eax
	mulsd	waveform(,%rax,8), %xmm6
	movl	120(%rdi), %eax
	cmpl	$1, %eax
	mulsd	%xmm0, %xmm6
	movsd	80(%rdi), %xmm0
	movsd	%xmm0, 128(%rdi)
	je	.L2112
	jle	.L5895
	cmpl	$3, %eax
	je	.L2115
	cmpl	$4, %eax
	.p2align 4,,5
	jne	.L2111
	movapd	%xmm4, %xmm0
	movq	$0, 80(%rdi)
.L2111:
	movl	16(%rdi), %edx
	movsd	%xmm0, 72(%rdi)
	mulsd	152(%rdi), %xmm0
	movl	%edx, %eax
	addl	20(%rdi), %edx
	shrl	$16, %eax
	cvtsi2sdq	%rax, %xmm2
	movl	%edx, 16(%rdi)
	addsd	%xmm3, %xmm2
	cvttsd2siq	%xmm2, %rax
	andl	$4095, %eax
	mulsd	waveform(,%rax,8), %xmm0
	mulsd	%xmm5, %xmm0
	addsd	%xmm6, %xmm0
	addsd	%xmm7, %xmm0
	divsd	.LC8(%rip), %xmm0
	jmp	.L531
	.p2align 4,,10
	.p2align 3
.L551:
	movsd	824(%rdi), %xmm3
	movl	920(%rdi), %eax
	movsd	.LC21(%rip), %xmm2
	movapd	%xmm3, %xmm4
	movsd	880(%rdi), %xmm10
	cmpl	$1, %eax
	mulsd	%xmm2, %xmm4
	movsd	%xmm10, 928(%rdi)
	cvttsd2siq	%xmm4, %rdx
	je	.L1969
	jle	.L5896
	cmpl	$3, %eax
	je	.L1972
	cmpl	$4, %eax
	.p2align 4,,5
	jne	.L5148
	xorpd	%xmm4, %xmm4
	movsd	%xmm4, 880(%rdi)
	movapd	%xmm4, %xmm10
.L1968:
	movl	816(%rdi), %edx
	movsd	.LC0(%rip), %xmm3
	movsd	%xmm10, 872(%rdi)
	mulsd	%xmm3, %xmm1
	movl	%edx, %eax
	addl	820(%rdi), %edx
	shrl	$16, %eax
	cvtsi2sdq	%rax, %xmm11
	movl	%edx, 816(%rdi)
	addsd	%xmm11, %xmm1
	cvttsd2siq	%xmm1, %rax
	movsd	952(%rdi), %xmm1
	mulsd	%xmm10, %xmm1
	movsd	664(%rdi), %xmm10
	andl	$4095, %eax
	mulsd	waveform(,%rax,8), %xmm1
	movl	760(%rdi), %eax
	cmpl	$1, %eax
	mulsd	%xmm8, %xmm1
	movapd	%xmm10, %xmm8
	mulsd	%xmm2, %xmm8
	cvttsd2siq	%xmm8, %rdx
	movsd	720(%rdi), %xmm8
	movsd	%xmm8, 768(%rdi)
	je	.L1982
	jle	.L5897
	cmpl	$3, %eax
	je	.L1985
	cmpl	$4, %eax
	.p2align 4,,5
	jne	.L1981
	movapd	%xmm4, %xmm8
	movq	$0, 720(%rdi)
.L1981:
	movl	656(%rdi), %edx
	movapd	%xmm1, %xmm11
	movsd	%xmm8, 712(%rdi)
	mulsd	792(%rdi), %xmm8
	mulsd	%xmm3, %xmm11
	movl	%edx, %eax
	addl	660(%rdi), %edx
	shrl	$16, %eax
	cvtsi2sdq	%rax, %xmm10
	movl	%edx, 656(%rdi)
	addsd	%xmm11, %xmm10
	cvttsd2siq	%xmm10, %rax
	movsd	504(%rdi), %xmm10
	andl	$4095, %eax
	mulsd	waveform(,%rax,8), %xmm8
	movl	600(%rdi), %eax
	cmpl	$1, %eax
	mulsd	%xmm7, %xmm8
	movapd	%xmm10, %xmm7
	mulsd	%xmm2, %xmm7
	cvttsd2siq	%xmm7, %rdx
	movsd	560(%rdi), %xmm7
	movsd	%xmm7, 608(%rdi)
	je	.L1995
	jle	.L5898
	cmpl	$3, %eax
	je	.L1998
	cmpl	$4, %eax
	.p2align 4,,5
	jne	.L1994
	movapd	%xmm4, %xmm7
	movq	$0, 560(%rdi)
.L1994:
	movl	496(%rdi), %edx
	movsd	%xmm7, 552(%rdi)
	mulsd	632(%rdi), %xmm7
	movl	%edx, %eax
	addl	500(%rdi), %edx
	shrl	$16, %eax
	cvtsi2sdq	%rax, %xmm10
	movl	%edx, 496(%rdi)
	addsd	%xmm11, %xmm10
	cvttsd2siq	%xmm10, %rax
	movsd	344(%rdi), %xmm10
	andl	$4095, %eax
	mulsd	waveform(,%rax,8), %xmm7
	movl	440(%rdi), %eax
	cmpl	$1, %eax
	mulsd	%xmm9, %xmm7
	movapd	%xmm10, %xmm9
	mulsd	%xmm2, %xmm9
	cvttsd2siq	%xmm9, %rdx
	movsd	400(%rdi), %xmm9
	movsd	%xmm9, 448(%rdi)
	je	.L2008
	jle	.L5899
	cmpl	$3, %eax
	je	.L2011
	cmpl	$4, %eax
	.p2align 4,,5
	jne	.L2007
	movapd	%xmm4, %xmm9
	movq	$0, 400(%rdi)
.L2007:
	movl	336(%rdi), %edx
	movsd	%xmm9, 392(%rdi)
	mulsd	472(%rdi), %xmm9
	movl	%edx, %eax
	addl	340(%rdi), %edx
	shrl	$16, %eax
	cvtsi2sdq	%rax, %xmm10
	movl	%edx, 336(%rdi)
	addsd	%xmm4, %xmm10
	cvttsd2siq	%xmm10, %rax
	movsd	184(%rdi), %xmm10
	andl	$4095, %eax
	mulsd	waveform(,%rax,8), %xmm9
	movl	280(%rdi), %eax
	cmpl	$1, %eax
	mulsd	%xmm6, %xmm9
	movapd	%xmm10, %xmm6
	mulsd	%xmm2, %xmm6
	cvttsd2siq	%xmm6, %rdx
	movsd	240(%rdi), %xmm6
	movsd	%xmm6, 288(%rdi)
	je	.L2021
	jle	.L5900
	cmpl	$3, %eax
	je	.L2024
	cmpl	$4, %eax
	.p2align 4,,5
	jne	.L2020
	movapd	%xmm4, %xmm6
	movq	$0, 240(%rdi)
.L2020:
	movl	176(%rdi), %edx
	mulsd	%xmm3, %xmm9
	movsd	%xmm6, 232(%rdi)
	mulsd	312(%rdi), %xmm6
	movl	%edx, %eax
	addl	180(%rdi), %edx
	shrl	$16, %eax
	cvtsi2sdq	%rax, %xmm10
	movl	%edx, 176(%rdi)
	addsd	%xmm10, %xmm9
	cvttsd2siq	%xmm9, %rax
	movsd	24(%rdi), %xmm9
	mulsd	%xmm9, %xmm2
	cvttsd2siq	%xmm2, %rdx
	andl	$4095, %eax
	mulsd	waveform(,%rax,8), %xmm6
	movl	120(%rdi), %eax
	cmpl	$1, %eax
	mulsd	%xmm0, %xmm6
	movsd	80(%rdi), %xmm0
	movsd	%xmm0, 128(%rdi)
	je	.L2034
	jle	.L5901
	cmpl	$3, %eax
	je	.L2037
	cmpl	$4, %eax
	.p2align 4,,5
	jne	.L2033
	movapd	%xmm4, %xmm0
	movq	$0, 80(%rdi)
.L2033:
	movl	16(%rdi), %edx
	mulsd	%xmm6, %xmm3
	movsd	%xmm0, 72(%rdi)
	mulsd	152(%rdi), %xmm0
	movl	%edx, %eax
	addl	20(%rdi), %edx
	shrl	$16, %eax
	cvtsi2sdq	%rax, %xmm2
	movl	%edx, 16(%rdi)
	addsd	%xmm2, %xmm3
	cvttsd2siq	%xmm3, %rax
	andl	$4095, %eax
	mulsd	waveform(,%rax,8), %xmm0
	mulsd	%xmm5, %xmm0
	addsd	%xmm7, %xmm0
	addsd	%xmm8, %xmm0
	divsd	.LC8(%rip), %xmm0
	jmp	.L531
	.p2align 4,,10
	.p2align 3
.L550:
	movsd	184(%rdi), %xmm3
	movl	280(%rdi), %eax
	movsd	.LC21(%rip), %xmm2
	movapd	%xmm3, %xmm4
	movsd	240(%rdi), %xmm9
	cmpl	$1, %eax
	mulsd	%xmm2, %xmm4
	movsd	%xmm9, 288(%rdi)
	cvttsd2siq	%xmm4, %rdx
	je	.L1893
	jle	.L5902
	cmpl	$3, %eax
	je	.L1896
	cmpl	$4, %eax
	.p2align 4,,5
	jne	.L5124
	xorpd	%xmm4, %xmm4
	movsd	%xmm4, 240(%rdi)
	movapd	%xmm4, %xmm9
.L1892:
	movl	176(%rdi), %edx
	movsd	%xmm9, 232(%rdi)
	mulsd	312(%rdi), %xmm9
	movsd	880(%rdi), %xmm10
	movl	%edx, %eax
	addl	180(%rdi), %edx
	movsd	%xmm10, 928(%rdi)
	shrl	$16, %eax
	cvtsi2sdq	%rax, %xmm3
	movl	%edx, 176(%rdi)
	addsd	%xmm4, %xmm3
	cvttsd2siq	%xmm3, %rax
	andl	$4095, %eax
	mulsd	waveform(,%rax,8), %xmm9
	movl	920(%rdi), %eax
	cmpl	$1, %eax
	mulsd	%xmm0, %xmm9
	movsd	824(%rdi), %xmm0
	movapd	%xmm0, %xmm3
	mulsd	%xmm2, %xmm3
	cvttsd2siq	%xmm3, %rdx
	je	.L1906
	jle	.L5903
	cmpl	$3, %eax
	je	.L1909
	cmpl	$4, %eax
	.p2align 4,,5
	jne	.L1905
	movapd	%xmm4, %xmm10
	movq	$0, 880(%rdi)
.L1905:
	movl	816(%rdi), %edx
	movsd	%xmm10, 872(%rdi)
	mulsd	952(%rdi), %xmm10
	movsd	664(%rdi), %xmm3
	movl	%edx, %eax
	addl	820(%rdi), %edx
	shrl	$16, %eax
	cvtsi2sdq	%rax, %xmm0
	movl	%edx, 816(%rdi)
	addsd	%xmm4, %xmm0
	cvttsd2siq	%xmm0, %rax
	movapd	%xmm3, %xmm0
	mulsd	%xmm2, %xmm0
	cvttsd2siq	%xmm0, %rdx
	movsd	720(%rdi), %xmm0
	movsd	%xmm0, 768(%rdi)
	andl	$4095, %eax
	mulsd	waveform(,%rax,8), %xmm10
	movl	760(%rdi), %eax
	cmpl	$1, %eax
	mulsd	%xmm8, %xmm10
	je	.L1919
	jle	.L5904
	cmpl	$3, %eax
	je	.L1922
	cmpl	$4, %eax
	.p2align 4,,5
	jne	.L1918
	movapd	%xmm4, %xmm0
	movq	$0, 720(%rdi)
.L1918:
	movl	656(%rdi), %edx
	movsd	.LC0(%rip), %xmm3
	movsd	%xmm0, 712(%rdi)
	mulsd	792(%rdi), %xmm0
	mulsd	%xmm3, %xmm10
	movl	%edx, %eax
	addl	660(%rdi), %edx
	shrl	$16, %eax
	cvtsi2sdq	%rax, %xmm8
	movl	%edx, 656(%rdi)
	addsd	%xmm8, %xmm10
	cvttsd2siq	%xmm10, %rax
	andl	$4095, %eax
	mulsd	waveform(,%rax,8), %xmm0
	movl	600(%rdi), %eax
	cmpl	$1, %eax
	mulsd	%xmm7, %xmm0
	movsd	504(%rdi), %xmm7
	movapd	%xmm7, %xmm8
	mulsd	%xmm2, %xmm8
	cvttsd2siq	%xmm8, %rdx
	movsd	560(%rdi), %xmm8
	movsd	%xmm8, 608(%rdi)
	je	.L1932
	jle	.L5905
	cmpl	$3, %eax
	je	.L1935
	cmpl	$4, %eax
	.p2align 4,,5
	jne	.L1931
	movapd	%xmm4, %xmm8
	movq	$0, 560(%rdi)
.L1931:
	movsd	%xmm8, 552(%rdi)
	movl	500(%rdi), %eax
	addl	%eax, 496(%rdi)
	movsd	344(%rdi), %xmm8
	movl	440(%rdi), %eax
	movapd	%xmm8, %xmm7
	cmpl	$1, %eax
	mulsd	%xmm2, %xmm7
	cvttsd2siq	%xmm7, %rdx
	movsd	400(%rdi), %xmm7
	movsd	%xmm7, 448(%rdi)
	je	.L1943
	jle	.L5906
	cmpl	$3, %eax
	je	.L1946
	cmpl	$4, %eax
	.p2align 4,,5
	jne	.L1942
	movapd	%xmm4, %xmm7
	movq	$0, 400(%rdi)
.L1942:
	movl	336(%rdi), %edx
	mulsd	%xmm3, %xmm1
	movsd	%xmm7, 392(%rdi)
	movl	%edx, %eax
	addl	340(%rdi), %edx
	shrl	$16, %eax
	cvtsi2sdq	%rax, %xmm8
	movl	%edx, 336(%rdi)
	addsd	%xmm8, %xmm1
	cvttsd2siq	%xmm1, %rax
	movsd	472(%rdi), %xmm1
	mulsd	%xmm7, %xmm1
	andl	$4095, %eax
	mulsd	waveform(,%rax,8), %xmm1
	movl	120(%rdi), %eax
	cmpl	$1, %eax
	mulsd	%xmm6, %xmm1
	movsd	24(%rdi), %xmm6
	mulsd	%xmm6, %xmm2
	addsd	%xmm1, %xmm9
	cvttsd2siq	%xmm2, %rdx
	addsd	%xmm0, %xmm9
	movsd	80(%rdi), %xmm0
	movsd	%xmm0, 128(%rdi)
	je	.L1956
	jle	.L5907
	cmpl	$3, %eax
	je	.L1959
	cmpl	$4, %eax
	.p2align 4,,5
	jne	.L1955
	movapd	%xmm4, %xmm0
	movq	$0, 80(%rdi)
.L1955:
	mulsd	%xmm9, %xmm3
	movl	16(%rdi), %edx
	movsd	%xmm0, 72(%rdi)
.L5703:
	movl	%edx, %eax
	mulsd	152(%rdi), %xmm0
	addl	20(%rdi), %edx
	shrl	$16, %eax
	cvtsi2sdq	%rax, %xmm2
	movl	%edx, 16(%rdi)
	addsd	%xmm2, %xmm3
	cvttsd2siq	%xmm3, %rax
	andl	$4095, %eax
	mulsd	waveform(,%rax,8), %xmm0
	mulsd	%xmm5, %xmm0
	jmp	.L531
	.p2align 4,,10
	.p2align 3
.L549:
	movsd	184(%rdi), %xmm3
	movl	280(%rdi), %eax
	movsd	.LC21(%rip), %xmm2
	movapd	%xmm3, %xmm4
	movsd	240(%rdi), %xmm10
	cmpl	$1, %eax
	mulsd	%xmm2, %xmm4
	movsd	%xmm10, 288(%rdi)
	cvttsd2siq	%xmm4, %rdx
	je	.L1815
	jle	.L5908
	cmpl	$3, %eax
	je	.L1818
	cmpl	$4, %eax
	.p2align 4,,5
	jne	.L5100
	xorpd	%xmm4, %xmm4
	movsd	%xmm4, 240(%rdi)
	movapd	%xmm4, %xmm10
.L1814:
	movl	176(%rdi), %edx
	movsd	.LC0(%rip), %xmm3
	movsd	%xmm10, 232(%rdi)
	mulsd	%xmm3, %xmm1
	movl	%edx, %eax
	addl	180(%rdi), %edx
	shrl	$16, %eax
	cvtsi2sdq	%rax, %xmm11
	movl	%edx, 176(%rdi)
	addsd	%xmm11, %xmm1
	cvttsd2siq	%xmm1, %rax
	movsd	312(%rdi), %xmm1
	mulsd	%xmm10, %xmm1
	andl	$4095, %eax
	mulsd	waveform(,%rax,8), %xmm1
	movl	920(%rdi), %eax
	cmpl	$1, %eax
	mulsd	%xmm0, %xmm1
	movsd	824(%rdi), %xmm0
	movapd	%xmm0, %xmm10
	mulsd	%xmm2, %xmm10
	cvttsd2siq	%xmm10, %rdx
	movsd	880(%rdi), %xmm10
	movsd	%xmm10, 928(%rdi)
	je	.L1828
	jle	.L5909
	cmpl	$3, %eax
	je	.L1831
	cmpl	$4, %eax
	.p2align 4,,5
	jne	.L1827
	movapd	%xmm4, %xmm10
	movq	$0, 880(%rdi)
.L1827:
	movl	816(%rdi), %edx
	movsd	%xmm10, 872(%rdi)
	mulsd	952(%rdi), %xmm10
	movl	%edx, %eax
	addl	820(%rdi), %edx
	shrl	$16, %eax
	cvtsi2sdq	%rax, %xmm0
	movl	%edx, 816(%rdi)
	addsd	%xmm4, %xmm0
	cvttsd2siq	%xmm0, %rax
	andl	$4095, %eax
	mulsd	waveform(,%rax,8), %xmm10
	movl	760(%rdi), %eax
	cmpl	$1, %eax
	mulsd	%xmm8, %xmm10
	movsd	664(%rdi), %xmm8
	movapd	%xmm8, %xmm0
	mulsd	%xmm2, %xmm0
	cvttsd2siq	%xmm0, %rdx
	movsd	720(%rdi), %xmm0
	movsd	%xmm0, 768(%rdi)
	je	.L1841
	jle	.L5910
	cmpl	$3, %eax
	je	.L1844
	cmpl	$4, %eax
	.p2align 4,,5
	jne	.L1840
	movapd	%xmm4, %xmm0
	movq	$0, 720(%rdi)
.L1840:
	movl	656(%rdi), %edx
	mulsd	%xmm3, %xmm10
	movsd	%xmm0, 712(%rdi)
	mulsd	792(%rdi), %xmm0
	movl	%edx, %eax
	addl	660(%rdi), %edx
	shrl	$16, %eax
	cvtsi2sdq	%rax, %xmm8
	movl	%edx, 656(%rdi)
	addsd	%xmm8, %xmm10
	cvttsd2siq	%xmm10, %rax
	andl	$4095, %eax
	mulsd	waveform(,%rax,8), %xmm0
	movl	600(%rdi), %eax
	cmpl	$1, %eax
	mulsd	%xmm7, %xmm0
	movsd	504(%rdi), %xmm7
	movapd	%xmm7, %xmm8
	mulsd	%xmm2, %xmm8
	cvttsd2siq	%xmm8, %rdx
	movsd	560(%rdi), %xmm8
	movsd	%xmm8, 608(%rdi)
	je	.L1854
	jle	.L5911
	cmpl	$3, %eax
	je	.L1857
	cmpl	$4, %eax
	.p2align 4,,5
	jne	.L1853
	movapd	%xmm4, %xmm8
	movq	$0, 560(%rdi)
.L1853:
	movl	496(%rdi), %edx
	movsd	%xmm8, 552(%rdi)
	mulsd	632(%rdi), %xmm8
	movl	%edx, %eax
	addl	500(%rdi), %edx
	shrl	$16, %eax
	cvtsi2sdq	%rax, %xmm7
	movl	%edx, 496(%rdi)
	addsd	%xmm4, %xmm7
	cvttsd2siq	%xmm7, %rax
	andl	$4095, %eax
	mulsd	waveform(,%rax,8), %xmm8
	movl	440(%rdi), %eax
	cmpl	$1, %eax
	mulsd	%xmm9, %xmm8
	movsd	344(%rdi), %xmm9
	movapd	%xmm9, %xmm7
	mulsd	%xmm2, %xmm7
	cvttsd2siq	%xmm7, %rdx
	movsd	400(%rdi), %xmm7
	movsd	%xmm7, 448(%rdi)
	je	.L1867
	jle	.L5912
	cmpl	$3, %eax
	je	.L1870
	cmpl	$4, %eax
	.p2align 4,,5
	jne	.L1866
	movapd	%xmm4, %xmm7
	movq	$0, 400(%rdi)
.L1866:
	movl	336(%rdi), %edx
	mulsd	%xmm3, %xmm8
	movsd	%xmm7, 392(%rdi)
	mulsd	472(%rdi), %xmm7
	movl	%edx, %eax
	addl	340(%rdi), %edx
	shrl	$16, %eax
	cvtsi2sdq	%rax, %xmm9
	movl	%edx, 336(%rdi)
	addsd	%xmm9, %xmm8
	cvttsd2siq	%xmm8, %rax
	andl	$4095, %eax
	mulsd	waveform(,%rax,8), %xmm7
	mulsd	%xmm6, %xmm7
	addsd	%xmm1, %xmm7
.L5791:
	movsd	24(%rdi), %xmm6
	movl	120(%rdi), %eax
	addsd	%xmm0, %xmm7
	movsd	80(%rdi), %xmm0
	mulsd	%xmm6, %xmm2
	cmpl	$1, %eax
	movsd	%xmm0, 128(%rdi)
	cvttsd2siq	%xmm2, %rdx
	je	.L1880
	jle	.L5913
	cmpl	$3, %eax
	je	.L1883
	cmpl	$4, %eax
	.p2align 4,,5
	jne	.L1879
	movapd	%xmm4, %xmm0
	movq	$0, 80(%rdi)
	.p2align 4,,10
	.p2align 3
.L1879:
	movsd	%xmm0, 72(%rdi)
	movl	16(%rdi), %edx
	mulsd	%xmm7, %xmm3
	jmp	.L5703
	.p2align 4,,10
	.p2align 3
.L548:
	movsd	184(%rdi), %xmm3
	movl	280(%rdi), %eax
	movsd	.LC21(%rip), %xmm2
	movapd	%xmm3, %xmm4
	movsd	240(%rdi), %xmm10
	cmpl	$1, %eax
	mulsd	%xmm2, %xmm4
	movsd	%xmm10, 288(%rdi)
	cvttsd2siq	%xmm4, %rdx
	je	.L1737
	jle	.L5914
	cmpl	$3, %eax
	je	.L1740
	cmpl	$4, %eax
	.p2align 4,,5
	jne	.L5076
	xorpd	%xmm4, %xmm4
	movsd	%xmm4, 240(%rdi)
	movapd	%xmm4, %xmm10
.L1736:
	movl	176(%rdi), %edx
	movsd	%xmm10, 232(%rdi)
	mulsd	312(%rdi), %xmm10
	movl	%edx, %eax
	addl	180(%rdi), %edx
	shrl	$16, %eax
	cvtsi2sdq	%rax, %xmm3
	movl	%edx, 176(%rdi)
	addsd	%xmm4, %xmm3
	cvttsd2siq	%xmm3, %rax
	movsd	824(%rdi), %xmm3
	andl	$4095, %eax
	mulsd	waveform(,%rax,8), %xmm10
	movl	920(%rdi), %eax
	cmpl	$1, %eax
	mulsd	%xmm0, %xmm10
	movapd	%xmm3, %xmm0
	mulsd	%xmm2, %xmm0
	cvttsd2siq	%xmm0, %rdx
	movsd	880(%rdi), %xmm0
	movsd	%xmm0, 928(%rdi)
	je	.L1750
	jle	.L5915
	cmpl	$3, %eax
	je	.L1753
	cmpl	$4, %eax
	.p2align 4,,5
	jne	.L1749
	movapd	%xmm4, %xmm0
	movq	$0, 880(%rdi)
.L1749:
	movl	816(%rdi), %edx
	movsd	.LC0(%rip), %xmm3
	movsd	%xmm0, 872(%rdi)
	mulsd	%xmm3, %xmm1
	movl	%edx, %eax
	addl	820(%rdi), %edx
	shrl	$16, %eax
	cvtsi2sdq	%rax, %xmm11
	movl	%edx, 816(%rdi)
	addsd	%xmm11, %xmm1
	cvttsd2siq	%xmm1, %rax
	movsd	952(%rdi), %xmm1
	mulsd	%xmm0, %xmm1
	andl	$4095, %eax
	mulsd	waveform(,%rax,8), %xmm1
	movl	760(%rdi), %eax
	cmpl	$1, %eax
	mulsd	%xmm8, %xmm1
	movsd	664(%rdi), %xmm8
	movapd	%xmm8, %xmm0
	mulsd	%xmm2, %xmm0
	cvttsd2siq	%xmm0, %rdx
	movsd	720(%rdi), %xmm0
	movsd	%xmm0, 768(%rdi)
	je	.L1763
	jle	.L5916
	cmpl	$3, %eax
	je	.L1766
	cmpl	$4, %eax
	.p2align 4,,5
	jne	.L1762
	movapd	%xmm4, %xmm0
	movq	$0, 720(%rdi)
.L1762:
	movl	656(%rdi), %edx
	movapd	%xmm1, %xmm8
	movsd	%xmm0, 712(%rdi)
	mulsd	792(%rdi), %xmm0
	mulsd	%xmm3, %xmm8
	movl	%edx, %eax
	addl	660(%rdi), %edx
	shrl	$16, %eax
	cvtsi2sdq	%rax, %xmm11
	movl	%edx, 656(%rdi)
	addsd	%xmm11, %xmm8
	cvttsd2siq	%xmm8, %rax
	andl	$4095, %eax
	mulsd	waveform(,%rax,8), %xmm0
	movl	600(%rdi), %eax
	cmpl	$1, %eax
	mulsd	%xmm7, %xmm0
	movsd	504(%rdi), %xmm7
	movapd	%xmm7, %xmm8
	mulsd	%xmm2, %xmm8
	cvttsd2siq	%xmm8, %rdx
	movsd	560(%rdi), %xmm8
	movsd	%xmm8, 608(%rdi)
	je	.L1776
	jle	.L5917
	cmpl	$3, %eax
	je	.L1779
	cmpl	$4, %eax
	.p2align 4,,5
	jne	.L1775
	movapd	%xmm4, %xmm8
	movq	$0, 560(%rdi)
.L1775:
	movl	496(%rdi), %edx
	movsd	%xmm8, 552(%rdi)
	mulsd	632(%rdi), %xmm8
	movl	%edx, %eax
	addl	500(%rdi), %edx
	shrl	$16, %eax
	cvtsi2sdq	%rax, %xmm7
	movl	%edx, 496(%rdi)
	addsd	%xmm4, %xmm7
	cvttsd2siq	%xmm7, %rax
	andl	$4095, %eax
	mulsd	waveform(,%rax,8), %xmm8
	movl	440(%rdi), %eax
	cmpl	$1, %eax
	mulsd	%xmm9, %xmm8
	movsd	344(%rdi), %xmm9
	movapd	%xmm9, %xmm7
	mulsd	%xmm2, %xmm7
	cvttsd2siq	%xmm7, %rdx
	movsd	400(%rdi), %xmm7
	movsd	%xmm7, 448(%rdi)
	je	.L1789
	jle	.L5918
	cmpl	$3, %eax
	je	.L1792
	cmpl	$4, %eax
	.p2align 4,,5
	jne	.L1788
	movapd	%xmm4, %xmm7
	movq	$0, 400(%rdi)
.L1788:
	movl	336(%rdi), %edx
	mulsd	%xmm3, %xmm8
	movsd	%xmm7, 392(%rdi)
	mulsd	472(%rdi), %xmm7
	movl	%edx, %eax
	addl	340(%rdi), %edx
	shrl	$16, %eax
	cvtsi2sdq	%rax, %xmm9
	movl	%edx, 336(%rdi)
	addsd	%xmm9, %xmm8
	cvttsd2siq	%xmm8, %rax
	andl	$4095, %eax
	mulsd	waveform(,%rax,8), %xmm7
	mulsd	%xmm6, %xmm7
	addsd	%xmm10, %xmm7
	jmp	.L5791
	.p2align 4,,10
	.p2align 3
.L547:
	movsd	184(%rdi), %xmm3
	movl	280(%rdi), %eax
	movsd	.LC21(%rip), %xmm2
	movapd	%xmm3, %xmm4
	movsd	240(%rdi), %xmm10
	cmpl	$1, %eax
	mulsd	%xmm2, %xmm4
	movsd	%xmm10, 288(%rdi)
	cvttsd2siq	%xmm4, %rdx
	je	.L1659
	jle	.L5919
	cmpl	$3, %eax
	je	.L1662
	cmpl	$4, %eax
	.p2align 4,,5
	jne	.L5052
	xorpd	%xmm4, %xmm4
	movsd	%xmm4, 240(%rdi)
	movapd	%xmm4, %xmm10
.L1658:
	movl	176(%rdi), %edx
	movsd	.LC0(%rip), %xmm3
	movsd	%xmm10, 232(%rdi)
	mulsd	%xmm3, %xmm1
	movl	%edx, %eax
	addl	180(%rdi), %edx
	shrl	$16, %eax
	cvtsi2sdq	%rax, %xmm11
	movl	%edx, 176(%rdi)
	addsd	%xmm11, %xmm1
	cvttsd2siq	%xmm1, %rax
	movsd	312(%rdi), %xmm1
	mulsd	%xmm10, %xmm1
	andl	$4095, %eax
	mulsd	waveform(,%rax,8), %xmm1
	movl	920(%rdi), %eax
	cmpl	$1, %eax
	mulsd	%xmm0, %xmm1
	movsd	824(%rdi), %xmm0
	movapd	%xmm0, %xmm10
	mulsd	%xmm2, %xmm10
	cvttsd2siq	%xmm10, %rdx
	movsd	880(%rdi), %xmm10
	movsd	%xmm10, 928(%rdi)
	je	.L1672
	jle	.L5920
	cmpl	$3, %eax
	je	.L1675
	cmpl	$4, %eax
	.p2align 4,,5
	jne	.L1671
	movapd	%xmm4, %xmm10
	movq	$0, 880(%rdi)
.L1671:
	movl	816(%rdi), %edx
	movsd	%xmm10, 872(%rdi)
	mulsd	952(%rdi), %xmm10
	movl	%edx, %eax
	addl	820(%rdi), %edx
	shrl	$16, %eax
	cvtsi2sdq	%rax, %xmm0
	movl	%edx, 816(%rdi)
	addsd	%xmm4, %xmm0
	cvttsd2siq	%xmm0, %rax
	andl	$4095, %eax
	mulsd	waveform(,%rax,8), %xmm10
	movl	760(%rdi), %eax
	cmpl	$1, %eax
	mulsd	%xmm8, %xmm10
	movsd	664(%rdi), %xmm8
	movapd	%xmm8, %xmm0
	mulsd	%xmm2, %xmm0
	cvttsd2siq	%xmm0, %rdx
	movsd	720(%rdi), %xmm0
	movsd	%xmm0, 768(%rdi)
	je	.L1685
	jle	.L5921
	cmpl	$3, %eax
	je	.L1688
	cmpl	$4, %eax
	.p2align 4,,5
	jne	.L1684
	movapd	%xmm4, %xmm0
	movq	$0, 720(%rdi)
.L1684:
	movl	656(%rdi), %edx
	movsd	%xmm0, 712(%rdi)
	mulsd	792(%rdi), %xmm0
	movl	%edx, %eax
	addl	660(%rdi), %edx
	shrl	$16, %eax
	cvtsi2sdq	%rax, %xmm8
	movl	%edx, 656(%rdi)
	addsd	%xmm4, %xmm8
	cvttsd2siq	%xmm8, %rax
	andl	$4095, %eax
	mulsd	waveform(,%rax,8), %xmm0
	movl	600(%rdi), %eax
	cmpl	$1, %eax
	mulsd	%xmm7, %xmm0
	movsd	504(%rdi), %xmm7
	movapd	%xmm7, %xmm8
	addsd	%xmm10, %xmm0
	mulsd	%xmm2, %xmm8
	cvttsd2siq	%xmm8, %rdx
	movsd	560(%rdi), %xmm8
	movsd	%xmm8, 608(%rdi)
	je	.L1698
	jle	.L5922
	cmpl	$3, %eax
	je	.L1701
	cmpl	$4, %eax
	.p2align 4,,5
	jne	.L1697
	movapd	%xmm4, %xmm8
	movq	$0, 560(%rdi)
.L1697:
	movl	496(%rdi), %edx
	mulsd	%xmm3, %xmm0
	movsd	%xmm8, 552(%rdi)
	mulsd	632(%rdi), %xmm8
	movl	%edx, %eax
	addl	500(%rdi), %edx
	shrl	$16, %eax
	cvtsi2sdq	%rax, %xmm7
	movl	%edx, 496(%rdi)
	addsd	%xmm7, %xmm0
	cvttsd2siq	%xmm0, %rax
	movsd	24(%rdi), %xmm0
	movapd	%xmm0, %xmm7
	mulsd	%xmm2, %xmm7
	cvttsd2siq	%xmm7, %rdx
	movsd	80(%rdi), %xmm7
	andl	$4095, %eax
	mulsd	waveform(,%rax,8), %xmm8
	movl	120(%rdi), %eax
	movsd	%xmm7, 128(%rdi)
	cmpl	$1, %eax
	mulsd	%xmm9, %xmm8
	je	.L1711
	jle	.L5923
	cmpl	$3, %eax
	je	.L1714
	cmpl	$4, %eax
	.p2align 4,,5
	jne	.L1710
	movapd	%xmm4, %xmm7
	movq	$0, 80(%rdi)
.L1710:
	movl	16(%rdi), %edx
	movapd	%xmm1, %xmm0
	movsd	%xmm7, 72(%rdi)
	mulsd	%xmm3, %xmm0
	movl	%edx, %eax
	shrl	$16, %eax
	cvtsi2sdq	%rax, %xmm9
	addsd	%xmm9, %xmm0
	cvttsd2siq	%xmm0, %rax
.L5788:
	mulsd	152(%rdi), %xmm7
	andl	$4095, %eax
	addl	20(%rdi), %edx
	movl	%edx, 16(%rdi)
	mulsd	waveform(,%rax,8), %xmm7
	mulsd	%xmm5, %xmm7
.L5787:
	movsd	344(%rdi), %xmm5
	movl	440(%rdi), %eax
	movsd	400(%rdi), %xmm0
	mulsd	%xmm5, %xmm2
	cmpl	$1, %eax
	movsd	%xmm0, 448(%rdi)
	cvttsd2siq	%xmm2, %rdx
	je	.L1724
	jle	.L5924
	cmpl	$3, %eax
	je	.L1727
	cmpl	$4, %eax
	.p2align 4,,5
	jne	.L1723
	movapd	%xmm4, %xmm0
	movq	$0, 400(%rdi)
.L1723:
	movl	336(%rdi), %edx
	mulsd	%xmm8, %xmm3
	movsd	%xmm0, 392(%rdi)
	mulsd	472(%rdi), %xmm0
	movsd	%xmm1, 1272(%rdi)
	movl	%edx, %eax
	addl	340(%rdi), %edx
	shrl	$16, %eax
	cvtsi2sdq	%rax, %xmm2
	movl	%edx, 336(%rdi)
	addsd	%xmm2, %xmm3
	cvttsd2siq	%xmm3, %rax
	andl	$4095, %eax
	mulsd	waveform(,%rax,8), %xmm0
	mulsd	%xmm6, %xmm0
	addsd	%xmm7, %xmm0
	mulsd	.LC6(%rip), %xmm0
	ret
	.p2align 4,,10
	.p2align 3
.L546:
	movsd	184(%rdi), %xmm3
	movl	280(%rdi), %eax
	movsd	.LC21(%rip), %xmm2
	movapd	%xmm3, %xmm4
	movsd	240(%rdi), %xmm10
	cmpl	$1, %eax
	mulsd	%xmm2, %xmm4
	movsd	%xmm10, 288(%rdi)
	cvttsd2siq	%xmm4, %rdx
	je	.L1581
	jle	.L5925
	cmpl	$3, %eax
	je	.L1584
	cmpl	$4, %eax
	.p2align 4,,5
	jne	.L5028
	xorpd	%xmm4, %xmm4
	movsd	%xmm4, 240(%rdi)
	movapd	%xmm4, %xmm10
.L1580:
	movl	176(%rdi), %edx
	movsd	%xmm10, 232(%rdi)
	mulsd	312(%rdi), %xmm10
	movl	%edx, %eax
	addl	180(%rdi), %edx
	shrl	$16, %eax
	cvtsi2sdq	%rax, %xmm3
	movl	%edx, 176(%rdi)
	addsd	%xmm4, %xmm3
	cvttsd2siq	%xmm3, %rax
	movsd	824(%rdi), %xmm3
	andl	$4095, %eax
	mulsd	waveform(,%rax,8), %xmm10
	movl	920(%rdi), %eax
	cmpl	$1, %eax
	mulsd	%xmm0, %xmm10
	movapd	%xmm3, %xmm0
	mulsd	%xmm2, %xmm0
	cvttsd2siq	%xmm0, %rdx
	movsd	880(%rdi), %xmm0
	movsd	%xmm0, 928(%rdi)
	je	.L1594
	jle	.L5926
	cmpl	$3, %eax
	je	.L1597
	cmpl	$4, %eax
	.p2align 4,,5
	jne	.L1593
	movapd	%xmm4, %xmm0
	movq	$0, 880(%rdi)
.L1593:
	movl	816(%rdi), %edx
	movsd	.LC0(%rip), %xmm3
	movsd	%xmm0, 872(%rdi)
	mulsd	%xmm3, %xmm1
	movl	%edx, %eax
	addl	820(%rdi), %edx
	shrl	$16, %eax
	cvtsi2sdq	%rax, %xmm11
	movl	%edx, 816(%rdi)
	addsd	%xmm11, %xmm1
	cvttsd2siq	%xmm1, %rax
	movsd	952(%rdi), %xmm1
	mulsd	%xmm0, %xmm1
	andl	$4095, %eax
	mulsd	waveform(,%rax,8), %xmm1
	movl	760(%rdi), %eax
	cmpl	$1, %eax
	mulsd	%xmm8, %xmm1
	movsd	664(%rdi), %xmm8
	movapd	%xmm8, %xmm0
	mulsd	%xmm2, %xmm0
	cvttsd2siq	%xmm0, %rdx
	movsd	720(%rdi), %xmm0
	movsd	%xmm0, 768(%rdi)
	je	.L1607
	jle	.L5927
	cmpl	$3, %eax
	je	.L1610
	cmpl	$4, %eax
	.p2align 4,,5
	jne	.L1606
	movapd	%xmm4, %xmm0
	movq	$0, 720(%rdi)
.L1606:
	movl	656(%rdi), %edx
	movsd	%xmm0, 712(%rdi)
	mulsd	792(%rdi), %xmm0
	movl	%edx, %eax
	addl	660(%rdi), %edx
	shrl	$16, %eax
	cvtsi2sdq	%rax, %xmm8
	movl	%edx, 656(%rdi)
	addsd	%xmm4, %xmm8
	cvttsd2siq	%xmm8, %rax
	andl	$4095, %eax
	mulsd	waveform(,%rax,8), %xmm0
	movl	600(%rdi), %eax
	cmpl	$1, %eax
	mulsd	%xmm7, %xmm0
	movsd	504(%rdi), %xmm7
	movapd	%xmm7, %xmm8
	addsd	%xmm1, %xmm0
	mulsd	%xmm2, %xmm8
	cvttsd2siq	%xmm8, %rdx
	movsd	560(%rdi), %xmm8
	movsd	%xmm8, 608(%rdi)
	je	.L1620
	jle	.L5928
	cmpl	$3, %eax
	je	.L1623
	cmpl	$4, %eax
	.p2align 4,,5
	jne	.L1619
	movapd	%xmm4, %xmm8
	movq	$0, 560(%rdi)
.L1619:
	movl	496(%rdi), %edx
	mulsd	%xmm3, %xmm0
	movsd	%xmm8, 552(%rdi)
	mulsd	632(%rdi), %xmm8
	movl	%edx, %eax
	addl	500(%rdi), %edx
	shrl	$16, %eax
	cvtsi2sdq	%rax, %xmm7
	movl	%edx, 496(%rdi)
	addsd	%xmm7, %xmm0
	cvttsd2siq	%xmm0, %rax
	movsd	24(%rdi), %xmm0
	movapd	%xmm0, %xmm7
	mulsd	%xmm2, %xmm7
	cvttsd2siq	%xmm7, %rdx
	movsd	80(%rdi), %xmm7
	andl	$4095, %eax
	mulsd	waveform(,%rax,8), %xmm8
	movl	120(%rdi), %eax
	movsd	%xmm7, 128(%rdi)
	cmpl	$1, %eax
	mulsd	%xmm9, %xmm8
	je	.L1633
	jle	.L5929
	cmpl	$3, %eax
	je	.L1636
	cmpl	$4, %eax
	.p2align 4,,5
	jne	.L1632
	movapd	%xmm4, %xmm7
	movq	$0, 80(%rdi)
.L1632:
	movl	16(%rdi), %edx
	mulsd	%xmm3, %xmm10
	movsd	%xmm7, 72(%rdi)
	movl	%edx, %eax
	shrl	$16, %eax
	cvtsi2sdq	%rax, %xmm0
	addsd	%xmm0, %xmm10
	cvttsd2siq	%xmm10, %rax
	jmp	.L5788
	.p2align 4,,10
	.p2align 3
.L545:
	movsd	184(%rdi), %xmm3
	movl	280(%rdi), %eax
	movsd	.LC21(%rip), %xmm2
	movapd	%xmm3, %xmm4
	movsd	240(%rdi), %xmm10
	cmpl	$1, %eax
	mulsd	%xmm2, %xmm4
	movsd	%xmm10, 288(%rdi)
	cvttsd2siq	%xmm4, %rdx
	je	.L1503
	jle	.L5930
	cmpl	$3, %eax
	je	.L1506
	cmpl	$4, %eax
	.p2align 4,,5
	jne	.L5004
	xorpd	%xmm4, %xmm4
	movsd	%xmm4, 240(%rdi)
	movapd	%xmm4, %xmm10
.L1502:
	movl	176(%rdi), %edx
	movsd	%xmm10, 232(%rdi)
	mulsd	312(%rdi), %xmm10
	movl	%edx, %eax
	addl	180(%rdi), %edx
	shrl	$16, %eax
	cvtsi2sdq	%rax, %xmm3
	movl	%edx, 176(%rdi)
	addsd	%xmm4, %xmm3
	cvttsd2siq	%xmm3, %rax
	movsd	824(%rdi), %xmm3
	andl	$4095, %eax
	mulsd	waveform(,%rax,8), %xmm10
	movl	920(%rdi), %eax
	cmpl	$1, %eax
	mulsd	%xmm0, %xmm10
	movapd	%xmm3, %xmm0
	mulsd	%xmm2, %xmm0
	cvttsd2siq	%xmm0, %rdx
	movsd	880(%rdi), %xmm0
	movsd	%xmm0, 928(%rdi)
	je	.L1516
	jle	.L5931
	cmpl	$3, %eax
	je	.L1519
	cmpl	$4, %eax
	.p2align 4,,5
	jne	.L1515
	movapd	%xmm4, %xmm0
	movq	$0, 880(%rdi)
.L1515:
	movl	816(%rdi), %edx
	movsd	.LC0(%rip), %xmm3
	movsd	%xmm0, 872(%rdi)
	mulsd	%xmm3, %xmm1
	movl	%edx, %eax
	addl	820(%rdi), %edx
	shrl	$16, %eax
	cvtsi2sdq	%rax, %xmm11
	movl	%edx, 816(%rdi)
	addsd	%xmm11, %xmm1
	cvttsd2siq	%xmm1, %rax
	movsd	952(%rdi), %xmm1
	mulsd	%xmm0, %xmm1
	andl	$4095, %eax
	mulsd	waveform(,%rax,8), %xmm1
	movl	760(%rdi), %eax
	cmpl	$1, %eax
	mulsd	%xmm8, %xmm1
	movsd	664(%rdi), %xmm8
	movapd	%xmm8, %xmm0
	mulsd	%xmm2, %xmm0
	cvttsd2siq	%xmm0, %rdx
	movsd	720(%rdi), %xmm0
	movsd	%xmm0, 768(%rdi)
	je	.L1529
	jle	.L5932
	cmpl	$3, %eax
	je	.L1532
	cmpl	$4, %eax
	.p2align 4,,5
	jne	.L1528
	movapd	%xmm4, %xmm0
	movq	$0, 720(%rdi)
.L1528:
	movl	656(%rdi), %edx
	movsd	%xmm0, 712(%rdi)
	mulsd	792(%rdi), %xmm0
	movl	%edx, %eax
	addl	660(%rdi), %edx
	shrl	$16, %eax
	cvtsi2sdq	%rax, %xmm8
	movl	%edx, 656(%rdi)
	addsd	%xmm4, %xmm8
	cvttsd2siq	%xmm8, %rax
	andl	$4095, %eax
	mulsd	waveform(,%rax,8), %xmm0
	movl	600(%rdi), %eax
	cmpl	$1, %eax
	mulsd	%xmm7, %xmm0
	movsd	504(%rdi), %xmm7
	movapd	%xmm7, %xmm8
	mulsd	%xmm2, %xmm8
	cvttsd2siq	%xmm8, %rdx
	movsd	560(%rdi), %xmm8
	movsd	%xmm8, 608(%rdi)
	je	.L1542
	jle	.L5933
	cmpl	$3, %eax
	je	.L1545
	cmpl	$4, %eax
	.p2align 4,,5
	jne	.L1541
	movapd	%xmm4, %xmm8
	movq	$0, 560(%rdi)
.L1541:
	movl	496(%rdi), %edx
	movsd	%xmm8, 552(%rdi)
	mulsd	632(%rdi), %xmm8
	movl	%edx, %eax
	addl	500(%rdi), %edx
	shrl	$16, %eax
	cvtsi2sdq	%rax, %xmm7
	movl	%edx, 496(%rdi)
	addsd	%xmm4, %xmm7
	cvttsd2siq	%xmm7, %rax
	andl	$4095, %eax
	mulsd	waveform(,%rax,8), %xmm8
	movl	120(%rdi), %eax
	cmpl	$1, %eax
	mulsd	%xmm9, %xmm8
	movsd	24(%rdi), %xmm9
	movapd	%xmm9, %xmm7
	mulsd	%xmm2, %xmm7
	cvttsd2siq	%xmm7, %rdx
	movsd	80(%rdi), %xmm7
	movsd	%xmm7, 128(%rdi)
	je	.L1555
	jle	.L5934
	cmpl	$3, %eax
	je	.L1558
	cmpl	$4, %eax
	.p2align 4,,5
	jne	.L1554
	movapd	%xmm4, %xmm7
	movq	$0, 80(%rdi)
.L1554:
	movl	16(%rdi), %edx
	mulsd	%xmm3, %xmm10
	movsd	%xmm7, 72(%rdi)
	mulsd	152(%rdi), %xmm7
	addsd	%xmm0, %xmm8
	movl	%edx, %eax
	addl	20(%rdi), %edx
	shrl	$16, %eax
	cvtsi2sdq	%rax, %xmm9
	addsd	%xmm1, %xmm8
	movl	%edx, 16(%rdi)
	addsd	%xmm9, %xmm10
	cvttsd2siq	%xmm10, %rax
	andl	$4095, %eax
	mulsd	waveform(,%rax,8), %xmm7
	mulsd	%xmm5, %xmm7
	jmp	.L5787
	.p2align 4,,10
	.p2align 3
.L544:
	movsd	184(%rdi), %xmm3
	movl	280(%rdi), %eax
	movsd	.LC21(%rip), %xmm2
	movapd	%xmm3, %xmm4
	movsd	240(%rdi), %xmm10
	cmpl	$1, %eax
	mulsd	%xmm2, %xmm4
	movsd	%xmm10, 288(%rdi)
	cvttsd2siq	%xmm4, %rdx
	je	.L1425
	jle	.L5935
	cmpl	$3, %eax
	je	.L1428
	cmpl	$4, %eax
	.p2align 4,,5
	jne	.L4980
	xorpd	%xmm4, %xmm4
	movsd	%xmm4, 240(%rdi)
	movapd	%xmm4, %xmm10
.L1424:
	movl	176(%rdi), %edx
	movsd	.LC0(%rip), %xmm3
	movsd	%xmm10, 232(%rdi)
	mulsd	%xmm3, %xmm1
	movl	%edx, %eax
	addl	180(%rdi), %edx
	shrl	$16, %eax
	cvtsi2sdq	%rax, %xmm11
	movl	%edx, 176(%rdi)
	addsd	%xmm11, %xmm1
	cvttsd2siq	%xmm1, %rax
	movsd	312(%rdi), %xmm1
	mulsd	%xmm10, %xmm1
	movsd	824(%rdi), %xmm10
	andl	$4095, %eax
	mulsd	waveform(,%rax,8), %xmm1
	movl	920(%rdi), %eax
	cmpl	$1, %eax
	mulsd	%xmm0, %xmm1
	movapd	%xmm10, %xmm0
	mulsd	%xmm2, %xmm0
	cvttsd2siq	%xmm0, %rdx
	movsd	880(%rdi), %xmm0
	movsd	%xmm0, 928(%rdi)
	je	.L1438
	jle	.L5936
	cmpl	$3, %eax
	je	.L1441
	cmpl	$4, %eax
	.p2align 4,,5
	jne	.L1437
	movapd	%xmm4, %xmm0
	movq	$0, 880(%rdi)
.L1437:
	movl	816(%rdi), %edx
	movsd	%xmm0, 872(%rdi)
	mulsd	952(%rdi), %xmm0
	movl	%edx, %eax
	addl	820(%rdi), %edx
	shrl	$16, %eax
	cvtsi2sdq	%rax, %xmm10
	movl	%edx, 816(%rdi)
	addsd	%xmm4, %xmm10
	cvttsd2siq	%xmm10, %rax
	movsd	664(%rdi), %xmm10
	andl	$4095, %eax
	mulsd	waveform(,%rax,8), %xmm0
	movl	760(%rdi), %eax
	cmpl	$1, %eax
	mulsd	%xmm8, %xmm0
	movapd	%xmm10, %xmm8
	mulsd	%xmm2, %xmm8
	cvttsd2siq	%xmm8, %rdx
	movsd	720(%rdi), %xmm8
	movsd	%xmm8, 768(%rdi)
	je	.L1451
	jle	.L5937
	cmpl	$3, %eax
	je	.L1454
	cmpl	$4, %eax
	.p2align 4,,5
	jne	.L1450
	movapd	%xmm4, %xmm8
	movq	$0, 720(%rdi)
.L1450:
	movl	656(%rdi), %edx
	movsd	%xmm8, 712(%rdi)
	mulsd	792(%rdi), %xmm8
	movl	%edx, %eax
	addl	660(%rdi), %edx
	shrl	$16, %eax
	cvtsi2sdq	%rax, %xmm10
	movl	%edx, 656(%rdi)
	addsd	%xmm4, %xmm10
	cvttsd2siq	%xmm10, %rax
	andl	$4095, %eax
	mulsd	waveform(,%rax,8), %xmm8
	movl	600(%rdi), %eax
	cmpl	$1, %eax
	mulsd	%xmm7, %xmm8
	movsd	504(%rdi), %xmm7
	movapd	%xmm7, %xmm10
	mulsd	%xmm2, %xmm10
	cvttsd2siq	%xmm10, %rdx
	movsd	560(%rdi), %xmm10
	movsd	%xmm10, 608(%rdi)
	je	.L1464
	jle	.L5938
	cmpl	$3, %eax
	je	.L1467
	cmpl	$4, %eax
	.p2align 4,,5
	jne	.L1463
	movapd	%xmm4, %xmm10
	movq	$0, 560(%rdi)
.L1463:
	movl	496(%rdi), %edx
	movsd	%xmm10, 552(%rdi)
	mulsd	632(%rdi), %xmm10
	movl	%edx, %eax
	addl	500(%rdi), %edx
	shrl	$16, %eax
	cvtsi2sdq	%rax, %xmm7
	movl	%edx, 496(%rdi)
	addsd	%xmm4, %xmm7
	cvttsd2siq	%xmm7, %rax
	andl	$4095, %eax
	mulsd	waveform(,%rax,8), %xmm10
	movl	120(%rdi), %eax
	cmpl	$1, %eax
	mulsd	%xmm9, %xmm10
	movsd	24(%rdi), %xmm9
	movapd	%xmm9, %xmm7
	mulsd	%xmm2, %xmm7
	cvttsd2siq	%xmm7, %rdx
	movsd	80(%rdi), %xmm7
	movsd	%xmm7, 128(%rdi)
	je	.L1477
	jle	.L5939
	cmpl	$3, %eax
	je	.L1480
	cmpl	$4, %eax
	.p2align 4,,5
	jne	.L1476
	movapd	%xmm4, %xmm7
	movq	$0, 80(%rdi)
.L1476:
	movl	16(%rdi), %edx
	movapd	%xmm1, %xmm9
	movsd	%xmm7, 72(%rdi)
	mulsd	152(%rdi), %xmm7
	addsd	%xmm10, %xmm8
	mulsd	%xmm3, %xmm9
	movl	%edx, %eax
	addl	20(%rdi), %edx
	shrl	$16, %eax
	cvtsi2sdq	%rax, %xmm11
	addsd	%xmm0, %xmm8
	movl	%edx, 16(%rdi)
	addsd	%xmm11, %xmm9
	cvttsd2siq	%xmm9, %rax
	andl	$4095, %eax
	mulsd	waveform(,%rax,8), %xmm7
	mulsd	%xmm5, %xmm7
	jmp	.L5787
	.p2align 4,,10
	.p2align 3
.L543:
	movsd	344(%rdi), %xmm3
	movl	440(%rdi), %eax
	movsd	.LC21(%rip), %xmm2
	movapd	%xmm3, %xmm4
	movsd	400(%rdi), %xmm11
	cmpl	$1, %eax
	mulsd	%xmm2, %xmm4
	movsd	%xmm11, 448(%rdi)
	cvttsd2siq	%xmm4, %rdx
	je	.L1347
	jle	.L5940
	cmpl	$3, %eax
	je	.L1350
	cmpl	$4, %eax
	.p2align 4,,5
	jne	.L4956
	xorpd	%xmm4, %xmm4
	movsd	%xmm4, 400(%rdi)
	movapd	%xmm4, %xmm11
.L1346:
	movl	336(%rdi), %edx
	movsd	%xmm11, 392(%rdi)
	mulsd	472(%rdi), %xmm11
	movsd	240(%rdi), %xmm10
	movl	%edx, %eax
	addl	340(%rdi), %edx
	movsd	%xmm10, 288(%rdi)
	shrl	$16, %eax
	cvtsi2sdq	%rax, %xmm3
	movl	%edx, 336(%rdi)
	addsd	%xmm4, %xmm3
	cvttsd2siq	%xmm3, %rax
	movsd	184(%rdi), %xmm3
	andl	$4095, %eax
	mulsd	waveform(,%rax,8), %xmm11
	movl	280(%rdi), %eax
	cmpl	$1, %eax
	mulsd	%xmm6, %xmm11
	movapd	%xmm3, %xmm6
	mulsd	%xmm2, %xmm6
	cvttsd2siq	%xmm6, %rdx
	je	.L1360
	jle	.L5941
	cmpl	$3, %eax
	je	.L1363
	cmpl	$4, %eax
	.p2align 4,,5
	jne	.L1359
	movapd	%xmm4, %xmm10
	movq	$0, 240(%rdi)
.L1359:
	movl	176(%rdi), %edx
	movsd	.LC0(%rip), %xmm3
	movsd	%xmm10, 232(%rdi)
	mulsd	312(%rdi), %xmm10
	mulsd	%xmm3, %xmm11
	movl	%edx, %eax
	addl	180(%rdi), %edx
	shrl	$16, %eax
	cvtsi2sdq	%rax, %xmm6
	movl	%edx, 176(%rdi)
	addsd	%xmm6, %xmm11
	cvttsd2siq	%xmm11, %rax
	andl	$4095, %eax
	mulsd	waveform(,%rax,8), %xmm10
	movl	120(%rdi), %eax
	cmpl	$1, %eax
	mulsd	%xmm0, %xmm10
	movsd	24(%rdi), %xmm0
	movapd	%xmm0, %xmm6
	mulsd	%xmm2, %xmm6
	cvttsd2siq	%xmm6, %rdx
	movsd	80(%rdi), %xmm6
	movsd	%xmm6, 128(%rdi)
	je	.L1373
	jle	.L5942
	cmpl	$3, %eax
	je	.L1376
	cmpl	$4, %eax
	.p2align 4,,5
	jne	.L1372
	movapd	%xmm4, %xmm6
	movq	$0, 80(%rdi)
.L1372:
	movl	16(%rdi), %edx
	mulsd	%xmm3, %xmm10
	movsd	%xmm6, 72(%rdi)
	mulsd	152(%rdi), %xmm6
	movl	%edx, %eax
	addl	20(%rdi), %edx
	shrl	$16, %eax
	cvtsi2sdq	%rax, %xmm0
	movl	%edx, 16(%rdi)
	addsd	%xmm0, %xmm10
	cvttsd2siq	%xmm10, %rax
	andl	$4095, %eax
	mulsd	waveform(,%rax,8), %xmm6
	movl	920(%rdi), %eax
	cmpl	$1, %eax
	mulsd	%xmm5, %xmm6
	movsd	824(%rdi), %xmm5
	movapd	%xmm5, %xmm0
	mulsd	%xmm2, %xmm0
	cvttsd2siq	%xmm0, %rdx
	movsd	880(%rdi), %xmm0
	movsd	%xmm0, 928(%rdi)
	je	.L1386
	jle	.L5943
	cmpl	$3, %eax
	je	.L1389
	cmpl	$4, %eax
	.p2align 4,,5
	jne	.L1385
	movapd	%xmm4, %xmm0
	movq	$0, 880(%rdi)
.L1385:
	movl	816(%rdi), %edx
	mulsd	%xmm3, %xmm1
	movsd	%xmm0, 872(%rdi)
	movl	%edx, %eax
	addl	820(%rdi), %edx
	shrl	$16, %eax
	cvtsi2sdq	%rax, %xmm5
	movl	%edx, 816(%rdi)
	addsd	%xmm5, %xmm1
	cvttsd2siq	%xmm1, %rax
	movsd	952(%rdi), %xmm1
	mulsd	%xmm0, %xmm1
	movsd	664(%rdi), %xmm0
	movapd	%xmm0, %xmm5
	mulsd	%xmm2, %xmm5
	andl	$4095, %eax
	mulsd	waveform(,%rax,8), %xmm1
	movl	760(%rdi), %eax
	cvttsd2siq	%xmm5, %rdx
	movsd	720(%rdi), %xmm5
	cmpl	$1, %eax
	movsd	%xmm5, 768(%rdi)
	mulsd	%xmm8, %xmm1
	je	.L1399
	jle	.L5944
	cmpl	$3, %eax
	je	.L1402
	cmpl	$4, %eax
	.p2align 4,,5
	jne	.L1398
	movapd	%xmm4, %xmm5
	movq	$0, 720(%rdi)
.L1398:
	movl	656(%rdi), %edx
	movsd	%xmm5, 712(%rdi)
	mulsd	792(%rdi), %xmm5
	movl	%edx, %eax
	addl	660(%rdi), %edx
	shrl	$16, %eax
	cvtsi2sdq	%rax, %xmm0
	movl	%edx, 656(%rdi)
	addsd	%xmm4, %xmm0
	cvttsd2siq	%xmm0, %rax
	andl	$4095, %eax
	mulsd	waveform(,%rax,8), %xmm5
	mulsd	%xmm7, %xmm5
	addsd	%xmm1, %xmm5
.L5782:
	movsd	504(%rdi), %xmm7
	movl	600(%rdi), %eax
	movsd	560(%rdi), %xmm0
	mulsd	%xmm7, %xmm2
	cmpl	$1, %eax
	movsd	%xmm0, 608(%rdi)
	cvttsd2siq	%xmm2, %rdx
	je	.L1412
	jle	.L5945
	cmpl	$3, %eax
	je	.L1415
	cmpl	$4, %eax
	.p2align 4,,5
	jne	.L1411
	movapd	%xmm4, %xmm0
	movq	$0, 560(%rdi)
.L1411:
	movl	496(%rdi), %edx
	mulsd	%xmm5, %xmm3
	movsd	%xmm0, 552(%rdi)
	mulsd	632(%rdi), %xmm0
	movl	%edx, %eax
	addl	500(%rdi), %edx
	shrl	$16, %eax
	cvtsi2sdq	%rax, %xmm2
	movl	%edx, 496(%rdi)
	addsd	%xmm2, %xmm3
	cvttsd2siq	%xmm3, %rax
	andl	$4095, %eax
	mulsd	waveform(,%rax,8), %xmm0
	mulsd	%xmm9, %xmm0
	addsd	%xmm6, %xmm0
	mulsd	.LC6(%rip), %xmm0
	jmp	.L531
	.p2align 4,,10
	.p2align 3
.L542:
	movsd	344(%rdi), %xmm3
	movl	440(%rdi), %eax
	movsd	.LC21(%rip), %xmm2
	movapd	%xmm3, %xmm4
	movsd	400(%rdi), %xmm10
	cmpl	$1, %eax
	mulsd	%xmm2, %xmm4
	movsd	%xmm10, 448(%rdi)
	cvttsd2siq	%xmm4, %rdx
	je	.L1269
	jle	.L5946
	cmpl	$3, %eax
	je	.L1272
	cmpl	$4, %eax
	.p2align 4,,5
	jne	.L4932
	xorpd	%xmm4, %xmm4
	movsd	%xmm4, 400(%rdi)
	movapd	%xmm4, %xmm10
.L1268:
	movl	336(%rdi), %edx
	movsd	.LC0(%rip), %xmm3
	movsd	%xmm10, 392(%rdi)
	mulsd	%xmm3, %xmm1
	movl	%edx, %eax
	addl	340(%rdi), %edx
	shrl	$16, %eax
	cvtsi2sdq	%rax, %xmm11
	movl	%edx, 336(%rdi)
	addsd	%xmm11, %xmm1
	cvttsd2siq	%xmm1, %rax
	movsd	472(%rdi), %xmm1
	mulsd	%xmm10, %xmm1
	andl	$4095, %eax
	mulsd	waveform(,%rax,8), %xmm1
	movl	280(%rdi), %eax
	cmpl	$1, %eax
	mulsd	%xmm6, %xmm1
	movsd	184(%rdi), %xmm6
	movapd	%xmm6, %xmm10
	mulsd	%xmm2, %xmm10
	cvttsd2siq	%xmm10, %rdx
	movsd	240(%rdi), %xmm10
	movsd	%xmm10, 288(%rdi)
	je	.L1282
	jle	.L5947
	cmpl	$3, %eax
	je	.L1285
	cmpl	$4, %eax
	.p2align 4,,5
	jne	.L1281
	movapd	%xmm4, %xmm10
	movq	$0, 240(%rdi)
.L1281:
	movl	176(%rdi), %edx
	movapd	%xmm1, %xmm6
	movsd	%xmm10, 232(%rdi)
	mulsd	312(%rdi), %xmm10
	mulsd	%xmm3, %xmm6
	movl	%edx, %eax
	addl	180(%rdi), %edx
	shrl	$16, %eax
	cvtsi2sdq	%rax, %xmm11
	movl	%edx, 176(%rdi)
	addsd	%xmm11, %xmm6
	cvttsd2siq	%xmm6, %rax
	andl	$4095, %eax
	mulsd	waveform(,%rax,8), %xmm10
	movl	120(%rdi), %eax
	cmpl	$1, %eax
	mulsd	%xmm0, %xmm10
	movsd	24(%rdi), %xmm0
	movapd	%xmm0, %xmm6
	mulsd	%xmm2, %xmm6
	cvttsd2siq	%xmm6, %rdx
	movsd	80(%rdi), %xmm6
	movsd	%xmm6, 128(%rdi)
	je	.L1295
	jle	.L5948
	cmpl	$3, %eax
	je	.L1298
	cmpl	$4, %eax
	.p2align 4,,5
	jne	.L1294
	movapd	%xmm4, %xmm6
	movq	$0, 80(%rdi)
.L1294:
	movl	16(%rdi), %edx
	mulsd	%xmm3, %xmm10
	movsd	%xmm6, 72(%rdi)
	mulsd	152(%rdi), %xmm6
	movl	%edx, %eax
	addl	20(%rdi), %edx
	shrl	$16, %eax
	cvtsi2sdq	%rax, %xmm0
	movl	%edx, 16(%rdi)
	addsd	%xmm0, %xmm10
	cvttsd2siq	%xmm10, %rax
	andl	$4095, %eax
	mulsd	waveform(,%rax,8), %xmm6
	movl	920(%rdi), %eax
	cmpl	$1, %eax
	mulsd	%xmm5, %xmm6
	movsd	824(%rdi), %xmm5
	movapd	%xmm5, %xmm0
	mulsd	%xmm2, %xmm0
	cvttsd2siq	%xmm0, %rdx
	movsd	880(%rdi), %xmm0
	movsd	%xmm0, 928(%rdi)
	je	.L1308
	jle	.L5949
	cmpl	$3, %eax
	je	.L1311
	cmpl	$4, %eax
	.p2align 4,,5
	jne	.L1307
	movapd	%xmm4, %xmm0
	movq	$0, 880(%rdi)
.L1307:
	movl	816(%rdi), %edx
	movsd	%xmm0, 872(%rdi)
	mulsd	952(%rdi), %xmm0
	movl	%edx, %eax
	addl	820(%rdi), %edx
	shrl	$16, %eax
	cvtsi2sdq	%rax, %xmm5
	movl	%edx, 816(%rdi)
	addsd	%xmm4, %xmm5
	cvttsd2siq	%xmm5, %rax
	andl	$4095, %eax
	mulsd	waveform(,%rax,8), %xmm0
	movl	760(%rdi), %eax
	cmpl	$1, %eax
	mulsd	%xmm8, %xmm0
	movsd	664(%rdi), %xmm8
	movapd	%xmm8, %xmm5
	mulsd	%xmm2, %xmm5
	cvttsd2siq	%xmm5, %rdx
	movsd	720(%rdi), %xmm5
	movsd	%xmm5, 768(%rdi)
	je	.L1321
	jle	.L5950
	cmpl	$3, %eax
	je	.L1324
	cmpl	$4, %eax
	.p2align 4,,5
	jne	.L1320
	movapd	%xmm4, %xmm5
	movq	$0, 720(%rdi)
.L1320:
	movl	656(%rdi), %edx
	movsd	%xmm5, 712(%rdi)
	mulsd	792(%rdi), %xmm5
	movl	%edx, %eax
	addl	660(%rdi), %edx
	shrl	$16, %eax
	cvtsi2sdq	%rax, %xmm8
	movl	%edx, 656(%rdi)
	addsd	%xmm4, %xmm8
	cvttsd2siq	%xmm8, %rax
	andl	$4095, %eax
	mulsd	waveform(,%rax,8), %xmm5
	mulsd	%xmm7, %xmm5
	addsd	%xmm0, %xmm5
	jmp	.L5782
	.p2align 4,,10
	.p2align 3
.L541:
	movsd	184(%rdi), %xmm3
	movl	280(%rdi), %eax
	movsd	.LC21(%rip), %xmm2
	movapd	%xmm3, %xmm4
	movsd	240(%rdi), %xmm10
	cmpl	$1, %eax
	mulsd	%xmm2, %xmm4
	movsd	%xmm10, 288(%rdi)
	cvttsd2siq	%xmm4, %rdx
	je	.L1191
	jle	.L5951
	cmpl	$3, %eax
	je	.L1194
	cmpl	$4, %eax
	.p2align 4,,5
	jne	.L4908
	xorpd	%xmm4, %xmm4
	movsd	%xmm4, 240(%rdi)
	movapd	%xmm4, %xmm10
.L1190:
	movl	176(%rdi), %edx
	movsd	.LC0(%rip), %xmm3
	movsd	%xmm10, 232(%rdi)
	mulsd	%xmm3, %xmm1
	movl	%edx, %eax
	addl	180(%rdi), %edx
	shrl	$16, %eax
	cvtsi2sdq	%rax, %xmm11
	movl	%edx, 176(%rdi)
	addsd	%xmm11, %xmm1
	cvttsd2siq	%xmm1, %rax
	movsd	312(%rdi), %xmm1
	mulsd	%xmm10, %xmm1
	andl	$4095, %eax
	mulsd	waveform(,%rax,8), %xmm1
	movl	120(%rdi), %eax
	cmpl	$1, %eax
	mulsd	%xmm0, %xmm1
	movsd	24(%rdi), %xmm0
	movapd	%xmm0, %xmm10
	mulsd	%xmm2, %xmm10
	cvttsd2siq	%xmm10, %rdx
	movsd	80(%rdi), %xmm10
	movsd	%xmm10, 128(%rdi)
	je	.L1204
	jle	.L5952
	cmpl	$3, %eax
	je	.L1207
	cmpl	$4, %eax
	.p2align 4,,5
	jne	.L1203
	movapd	%xmm4, %xmm10
	movq	$0, 80(%rdi)
.L1203:
	movl	16(%rdi), %edx
	movapd	%xmm1, %xmm0
	movsd	%xmm10, 72(%rdi)
	mulsd	152(%rdi), %xmm10
	mulsd	%xmm3, %xmm0
	movl	%edx, %eax
	addl	20(%rdi), %edx
	shrl	$16, %eax
	cvtsi2sdq	%rax, %xmm11
	movl	%edx, 16(%rdi)
	addsd	%xmm11, %xmm0
	cvttsd2siq	%xmm0, %rax
	movsd	824(%rdi), %xmm0
	andl	$4095, %eax
	mulsd	waveform(,%rax,8), %xmm10
	movl	920(%rdi), %eax
	cmpl	$1, %eax
	mulsd	%xmm5, %xmm10
	movapd	%xmm0, %xmm5
	mulsd	%xmm2, %xmm5
	cvttsd2siq	%xmm5, %rdx
	movsd	880(%rdi), %xmm5
	movsd	%xmm5, 928(%rdi)
	je	.L1217
	jle	.L5953
	cmpl	$3, %eax
	je	.L1220
	cmpl	$4, %eax
	.p2align 4,,5
	jne	.L1216
	movapd	%xmm4, %xmm5
	movq	$0, 880(%rdi)
.L1216:
	movl	816(%rdi), %edx
	movsd	%xmm5, 872(%rdi)
	mulsd	952(%rdi), %xmm5
	movl	%edx, %eax
	addl	820(%rdi), %edx
	shrl	$16, %eax
	cvtsi2sdq	%rax, %xmm0
	movl	%edx, 816(%rdi)
	addsd	%xmm4, %xmm0
	cvttsd2siq	%xmm0, %rax
	andl	$4095, %eax
	mulsd	waveform(,%rax,8), %xmm5
	movl	760(%rdi), %eax
	cmpl	$1, %eax
	mulsd	%xmm8, %xmm5
	movsd	664(%rdi), %xmm8
	movapd	%xmm8, %xmm0
	mulsd	%xmm2, %xmm0
	cvttsd2siq	%xmm0, %rdx
	movsd	720(%rdi), %xmm0
	movsd	%xmm0, 768(%rdi)
	je	.L1230
	jle	.L5954
	cmpl	$3, %eax
	je	.L1233
	cmpl	$4, %eax
	.p2align 4,,5
	jne	.L1229
	movapd	%xmm4, %xmm0
	movq	$0, 720(%rdi)
.L1229:
	movl	656(%rdi), %edx
	movsd	%xmm0, 712(%rdi)
.L5815:
	movl	%edx, %eax
	mulsd	%xmm3, %xmm5
	addl	660(%rdi), %edx
	shrl	$16, %eax
	mulsd	792(%rdi), %xmm0
	cvtsi2sdq	%rax, %xmm8
	movl	%edx, 656(%rdi)
	addsd	%xmm8, %xmm5
	cvttsd2siq	%xmm5, %rax
	andl	$4095, %eax
	mulsd	waveform(,%rax,8), %xmm0
	movl	600(%rdi), %eax
	cmpl	$1, %eax
	mulsd	%xmm7, %xmm0
	movsd	504(%rdi), %xmm7
	movapd	%xmm7, %xmm5
	mulsd	%xmm2, %xmm5
	cvttsd2siq	%xmm5, %rdx
	movsd	560(%rdi), %xmm5
	movsd	%xmm5, 608(%rdi)
	je	.L1243
	jle	.L5955
	cmpl	$3, %eax
	je	.L1246
	cmpl	$4, %eax
	.p2align 4,,5
	jne	.L1242
	movapd	%xmm4, %xmm5
	movq	$0, 560(%rdi)
.L1242:
	movl	496(%rdi), %edx
	movsd	%xmm5, 552(%rdi)
	mulsd	632(%rdi), %xmm5
	movl	%edx, %eax
	addl	500(%rdi), %edx
	shrl	$16, %eax
	cvtsi2sdq	%rax, %xmm7
	movl	%edx, 496(%rdi)
	addsd	%xmm4, %xmm7
	cvttsd2siq	%xmm7, %rax
	andl	$4095, %eax
	mulsd	waveform(,%rax,8), %xmm5
	mulsd	%xmm9, %xmm5
	addsd	%xmm0, %xmm5
.L5778:
	movsd	344(%rdi), %xmm7
	movl	440(%rdi), %eax
	movsd	400(%rdi), %xmm0
	mulsd	%xmm7, %xmm2
	cmpl	$1, %eax
	movsd	%xmm0, 448(%rdi)
	cvttsd2siq	%xmm2, %rdx
	je	.L1256
	jle	.L5956
	cmpl	$3, %eax
	je	.L1259
	cmpl	$4, %eax
	.p2align 4,,5
	jne	.L1255
	movapd	%xmm4, %xmm0
	movq	$0, 400(%rdi)
.L1255:
	movl	336(%rdi), %edx
	mulsd	%xmm5, %xmm3
	movsd	%xmm0, 392(%rdi)
	mulsd	472(%rdi), %xmm0
	movsd	%xmm1, 1272(%rdi)
	movl	%edx, %eax
	addl	340(%rdi), %edx
	shrl	$16, %eax
	cvtsi2sdq	%rax, %xmm2
	movl	%edx, 336(%rdi)
	addsd	%xmm2, %xmm3
	cvttsd2siq	%xmm3, %rax
	andl	$4095, %eax
	mulsd	waveform(,%rax,8), %xmm0
	mulsd	%xmm6, %xmm0
	addsd	%xmm10, %xmm0
	mulsd	.LC6(%rip), %xmm0
	ret
	.p2align 4,,10
	.p2align 3
.L540:
	movsd	184(%rdi), %xmm3
	movl	280(%rdi), %eax
	movsd	.LC21(%rip), %xmm2
	movapd	%xmm3, %xmm4
	movsd	240(%rdi), %xmm11
	cmpl	$1, %eax
	mulsd	%xmm2, %xmm4
	movsd	%xmm11, 288(%rdi)
	cvttsd2siq	%xmm4, %rdx
	je	.L1113
	jle	.L5957
	cmpl	$3, %eax
	je	.L1116
	cmpl	$4, %eax
	.p2align 4,,5
	jne	.L4884
	xorpd	%xmm4, %xmm4
	movsd	%xmm4, 240(%rdi)
	movapd	%xmm4, %xmm11
.L1112:
	movl	176(%rdi), %edx
	movsd	%xmm11, 232(%rdi)
	mulsd	312(%rdi), %xmm11
	movsd	80(%rdi), %xmm10
	movl	%edx, %eax
	addl	180(%rdi), %edx
	movsd	%xmm10, 128(%rdi)
	shrl	$16, %eax
	cvtsi2sdq	%rax, %xmm3
	movl	%edx, 176(%rdi)
	addsd	%xmm4, %xmm3
	cvttsd2siq	%xmm3, %rax
	andl	$4095, %eax
	mulsd	waveform(,%rax,8), %xmm11
	movl	120(%rdi), %eax
	cmpl	$1, %eax
	mulsd	%xmm0, %xmm11
	movsd	24(%rdi), %xmm0
	movapd	%xmm0, %xmm3
	mulsd	%xmm2, %xmm3
	cvttsd2siq	%xmm3, %rdx
	je	.L1126
	jle	.L5958
	cmpl	$3, %eax
	je	.L1129
	cmpl	$4, %eax
	.p2align 4,,5
	jne	.L1125
	movapd	%xmm4, %xmm10
	movq	$0, 80(%rdi)
.L1125:
	movl	16(%rdi), %edx
	movsd	.LC0(%rip), %xmm3
	movsd	%xmm10, 72(%rdi)
	mulsd	152(%rdi), %xmm10
	mulsd	%xmm3, %xmm11
	movl	%edx, %eax
	addl	20(%rdi), %edx
	shrl	$16, %eax
	cvtsi2sdq	%rax, %xmm0
	movl	%edx, 16(%rdi)
	addsd	%xmm0, %xmm11
	movsd	824(%rdi), %xmm0
	cvttsd2siq	%xmm11, %rax
	andl	$4095, %eax
	mulsd	waveform(,%rax,8), %xmm10
	movl	920(%rdi), %eax
	cmpl	$1, %eax
	mulsd	%xmm5, %xmm10
	movapd	%xmm0, %xmm5
	mulsd	%xmm2, %xmm5
	cvttsd2siq	%xmm5, %rdx
	movsd	880(%rdi), %xmm5
	movsd	%xmm5, 928(%rdi)
	je	.L1139
	jle	.L5959
	cmpl	$3, %eax
	je	.L1142
	cmpl	$4, %eax
	.p2align 4,,5
	jne	.L1138
	movapd	%xmm4, %xmm5
	movq	$0, 880(%rdi)
.L1138:
	movl	816(%rdi), %edx
	movsd	%xmm5, 872(%rdi)
	mulsd	952(%rdi), %xmm5
	movl	%edx, %eax
	addl	820(%rdi), %edx
	shrl	$16, %eax
	cvtsi2sdq	%rax, %xmm0
	movl	%edx, 816(%rdi)
	addsd	%xmm4, %xmm0
	cvttsd2siq	%xmm0, %rax
	andl	$4095, %eax
	mulsd	waveform(,%rax,8), %xmm5
	movl	760(%rdi), %eax
	cmpl	$1, %eax
	mulsd	%xmm8, %xmm5
	movsd	664(%rdi), %xmm8
	movapd	%xmm8, %xmm0
	mulsd	%xmm2, %xmm0
	cvttsd2siq	%xmm0, %rdx
	movsd	720(%rdi), %xmm0
	movsd	%xmm0, 768(%rdi)
	je	.L1152
	jle	.L5960
	cmpl	$3, %eax
	je	.L1155
	cmpl	$4, %eax
	.p2align 4,,5
	jne	.L1151
	movapd	%xmm4, %xmm0
	movq	$0, 720(%rdi)
.L1151:
	movl	656(%rdi), %edx
	mulsd	%xmm3, %xmm5
	movsd	%xmm0, 712(%rdi)
	mulsd	792(%rdi), %xmm0
	movl	%edx, %eax
	addl	660(%rdi), %edx
	shrl	$16, %eax
	cvtsi2sdq	%rax, %xmm8
	movl	%edx, 656(%rdi)
	addsd	%xmm8, %xmm5
	cvttsd2siq	%xmm5, %rax
	andl	$4095, %eax
	mulsd	waveform(,%rax,8), %xmm0
	movl	600(%rdi), %eax
	cmpl	$1, %eax
	mulsd	%xmm7, %xmm0
	movsd	504(%rdi), %xmm7
	movapd	%xmm7, %xmm5
	mulsd	%xmm2, %xmm5
	cvttsd2siq	%xmm5, %rdx
	movsd	560(%rdi), %xmm5
	movsd	%xmm5, 608(%rdi)
	je	.L1165
	jle	.L5961
	cmpl	$3, %eax
	je	.L1168
	cmpl	$4, %eax
	.p2align 4,,5
	jne	.L1164
	movapd	%xmm4, %xmm5
	movq	$0, 560(%rdi)
.L1164:
	movl	496(%rdi), %edx
	mulsd	%xmm3, %xmm1
	movsd	%xmm5, 552(%rdi)
	movl	%edx, %eax
	addl	500(%rdi), %edx
	shrl	$16, %eax
	cvtsi2sdq	%rax, %xmm7
	movl	%edx, 496(%rdi)
	addsd	%xmm7, %xmm1
	cvttsd2siq	%xmm1, %rax
	movsd	632(%rdi), %xmm1
	mulsd	%xmm5, %xmm1
	movsd	344(%rdi), %xmm5
	mulsd	%xmm5, %xmm2
	cvttsd2siq	%xmm2, %rdx
	andl	$4095, %eax
	movsd	400(%rdi), %xmm2
	mulsd	waveform(,%rax,8), %xmm1
	movl	440(%rdi), %eax
	movsd	%xmm2, 448(%rdi)
	cmpl	$1, %eax
	mulsd	%xmm9, %xmm1
	addsd	%xmm1, %xmm0
	je	.L1178
	jle	.L5962
	cmpl	$3, %eax
	je	.L1181
	cmpl	$4, %eax
	.p2align 4,,5
	jne	.L3317
	movq	$0, 400(%rdi)
.L1177:
	movl	336(%rdi), %edx
	mulsd	%xmm0, %xmm3
	movsd	%xmm4, 392(%rdi)
	mulsd	472(%rdi), %xmm4
	movl	%edx, %eax
	addl	340(%rdi), %edx
	shrl	$16, %eax
	cvtsi2sdq	%rax, %xmm0
	movl	%edx, 336(%rdi)
	addsd	%xmm0, %xmm3
	cvttsd2siq	%xmm3, %rax
	andl	$4095, %eax
	movsd	waveform(,%rax,8), %xmm0
	mulsd	%xmm4, %xmm0
	mulsd	%xmm6, %xmm0
	addsd	%xmm10, %xmm0
	mulsd	.LC6(%rip), %xmm0
	jmp	.L531
	.p2align 4,,10
	.p2align 3
.L539:
	movsd	184(%rdi), %xmm3
	movl	280(%rdi), %eax
	movsd	.LC21(%rip), %xmm2
	movapd	%xmm3, %xmm4
	movsd	240(%rdi), %xmm11
	cmpl	$1, %eax
	mulsd	%xmm2, %xmm4
	movsd	%xmm11, 288(%rdi)
	cvttsd2siq	%xmm4, %rdx
	je	.L1035
	jle	.L5963
	cmpl	$3, %eax
	je	.L1038
	cmpl	$4, %eax
	.p2align 4,,5
	jne	.L4860
	xorpd	%xmm4, %xmm4
	movsd	%xmm4, 240(%rdi)
	movapd	%xmm4, %xmm11
.L1034:
	movl	176(%rdi), %edx
	movsd	%xmm11, 232(%rdi)
	mulsd	312(%rdi), %xmm11
	movsd	80(%rdi), %xmm10
	movl	%edx, %eax
	addl	180(%rdi), %edx
	movsd	%xmm10, 128(%rdi)
	shrl	$16, %eax
	cvtsi2sdq	%rax, %xmm3
	movl	%edx, 176(%rdi)
	addsd	%xmm4, %xmm3
	cvttsd2siq	%xmm3, %rax
	andl	$4095, %eax
	mulsd	waveform(,%rax,8), %xmm11
	movl	120(%rdi), %eax
	cmpl	$1, %eax
	mulsd	%xmm0, %xmm11
	movsd	24(%rdi), %xmm0
	movapd	%xmm0, %xmm3
	mulsd	%xmm2, %xmm3
	cvttsd2siq	%xmm3, %rdx
	je	.L1048
	jle	.L5964
	cmpl	$3, %eax
	je	.L1051
	cmpl	$4, %eax
	.p2align 4,,5
	jne	.L1047
	movapd	%xmm4, %xmm10
	movq	$0, 80(%rdi)
.L1047:
	movl	16(%rdi), %edx
	movsd	.LC0(%rip), %xmm3
	movsd	%xmm10, 72(%rdi)
	mulsd	152(%rdi), %xmm10
	mulsd	%xmm3, %xmm11
	movl	%edx, %eax
	addl	20(%rdi), %edx
	shrl	$16, %eax
	cvtsi2sdq	%rax, %xmm0
	movl	%edx, 16(%rdi)
	addsd	%xmm0, %xmm11
	cvttsd2siq	%xmm11, %rax
	andl	$4095, %eax
	mulsd	waveform(,%rax,8), %xmm10
	movl	920(%rdi), %eax
	cmpl	$1, %eax
	mulsd	%xmm5, %xmm10
	movsd	824(%rdi), %xmm5
	movapd	%xmm5, %xmm0
	mulsd	%xmm2, %xmm0
	cvttsd2siq	%xmm0, %rdx
	movsd	880(%rdi), %xmm0
	movsd	%xmm0, 928(%rdi)
	je	.L1061
	jle	.L5965
	cmpl	$3, %eax
	je	.L1064
	cmpl	$4, %eax
	.p2align 4,,5
	jne	.L1060
	movapd	%xmm4, %xmm0
	movq	$0, 880(%rdi)
.L1060:
	movl	816(%rdi), %edx
	mulsd	%xmm3, %xmm1
	movsd	%xmm0, 872(%rdi)
	movl	%edx, %eax
	addl	820(%rdi), %edx
	shrl	$16, %eax
	cvtsi2sdq	%rax, %xmm5
	movl	%edx, 816(%rdi)
	addsd	%xmm5, %xmm1
	movsd	664(%rdi), %xmm5
	cvttsd2siq	%xmm1, %rax
	movsd	952(%rdi), %xmm1
	mulsd	%xmm0, %xmm1
	movapd	%xmm5, %xmm0
	mulsd	%xmm2, %xmm0
	cvttsd2siq	%xmm0, %rdx
	movsd	720(%rdi), %xmm0
	andl	$4095, %eax
	mulsd	waveform(,%rax,8), %xmm1
	movl	760(%rdi), %eax
	movsd	%xmm0, 768(%rdi)
	cmpl	$1, %eax
	mulsd	%xmm8, %xmm1
	je	.L1074
	jle	.L5966
	cmpl	$3, %eax
	je	.L1077
	cmpl	$4, %eax
	.p2align 4,,5
	jne	.L1073
	movapd	%xmm4, %xmm0
	movq	$0, 720(%rdi)
.L1073:
	movsd	%xmm0, 712(%rdi)
	movl	656(%rdi), %edx
	movapd	%xmm1, %xmm5
	jmp	.L5815
	.p2align 4,,10
	.p2align 3
.L538:
	movsd	184(%rdi), %xmm3
	movl	280(%rdi), %eax
	movsd	.LC21(%rip), %xmm2
	movapd	%xmm3, %xmm4
	movsd	240(%rdi), %xmm11
	cmpl	$1, %eax
	mulsd	%xmm2, %xmm4
	movsd	%xmm11, 288(%rdi)
	cvttsd2siq	%xmm4, %rdx
	je	.L957
	jle	.L5967
	cmpl	$3, %eax
	je	.L960
	cmpl	$4, %eax
	.p2align 4,,5
	jne	.L4836
	xorpd	%xmm4, %xmm4
	movsd	%xmm4, 240(%rdi)
	movapd	%xmm4, %xmm11
.L956:
	movl	176(%rdi), %edx
	movsd	%xmm11, 232(%rdi)
	mulsd	312(%rdi), %xmm11
	movsd	80(%rdi), %xmm10
	movl	%edx, %eax
	addl	180(%rdi), %edx
	movsd	%xmm10, 128(%rdi)
	shrl	$16, %eax
	cvtsi2sdq	%rax, %xmm3
	movl	%edx, 176(%rdi)
	addsd	%xmm4, %xmm3
	cvttsd2siq	%xmm3, %rax
	andl	$4095, %eax
	mulsd	waveform(,%rax,8), %xmm11
	movl	120(%rdi), %eax
	cmpl	$1, %eax
	mulsd	%xmm0, %xmm11
	movsd	24(%rdi), %xmm0
	movapd	%xmm0, %xmm3
	mulsd	%xmm2, %xmm3
	cvttsd2siq	%xmm3, %rdx
	je	.L970
	jle	.L5968
	cmpl	$3, %eax
	je	.L973
	cmpl	$4, %eax
	.p2align 4,,5
	jne	.L969
	movapd	%xmm4, %xmm10
	movq	$0, 80(%rdi)
.L969:
	movl	16(%rdi), %edx
	movsd	.LC0(%rip), %xmm3
	movsd	%xmm10, 72(%rdi)
	mulsd	152(%rdi), %xmm10
	mulsd	%xmm3, %xmm11
	movl	%edx, %eax
	addl	20(%rdi), %edx
	shrl	$16, %eax
	cvtsi2sdq	%rax, %xmm0
	movl	%edx, 16(%rdi)
	addsd	%xmm0, %xmm11
	movsd	504(%rdi), %xmm0
	cvttsd2siq	%xmm11, %rax
	andl	$4095, %eax
	mulsd	waveform(,%rax,8), %xmm10
	movl	600(%rdi), %eax
	cmpl	$1, %eax
	mulsd	%xmm5, %xmm10
	movapd	%xmm0, %xmm5
	mulsd	%xmm2, %xmm5
	cvttsd2siq	%xmm5, %rdx
	movsd	560(%rdi), %xmm5
	movsd	%xmm5, 608(%rdi)
	je	.L983
	jle	.L5969
	cmpl	$3, %eax
	je	.L986
	cmpl	$4, %eax
	.p2align 4,,5
	jne	.L982
	movapd	%xmm4, %xmm5
	movq	$0, 560(%rdi)
.L982:
	movl	496(%rdi), %edx
	movsd	%xmm5, 552(%rdi)
	mulsd	632(%rdi), %xmm5
	movl	%edx, %eax
	addl	500(%rdi), %edx
	shrl	$16, %eax
	cvtsi2sdq	%rax, %xmm0
	movl	%edx, 496(%rdi)
	addsd	%xmm4, %xmm0
	cvttsd2siq	%xmm0, %rax
	andl	$4095, %eax
	mulsd	waveform(,%rax,8), %xmm5
	movl	440(%rdi), %eax
	cmpl	$1, %eax
	mulsd	%xmm9, %xmm5
	movsd	344(%rdi), %xmm9
	movapd	%xmm9, %xmm0
	mulsd	%xmm2, %xmm0
	cvttsd2siq	%xmm0, %rdx
	movsd	400(%rdi), %xmm0
	movsd	%xmm0, 448(%rdi)
	je	.L996
	jle	.L5970
	cmpl	$3, %eax
	je	.L999
	cmpl	$4, %eax
	.p2align 4,,5
	jne	.L995
	movapd	%xmm4, %xmm0
	movq	$0, 400(%rdi)
.L995:
	movl	336(%rdi), %edx
	mulsd	%xmm3, %xmm5
	movsd	%xmm0, 392(%rdi)
	mulsd	472(%rdi), %xmm0
	movl	%edx, %eax
	addl	340(%rdi), %edx
	shrl	$16, %eax
	cvtsi2sdq	%rax, %xmm9
	movl	%edx, 336(%rdi)
	addsd	%xmm9, %xmm5
	cvttsd2siq	%xmm5, %rax
	andl	$4095, %eax
	mulsd	waveform(,%rax,8), %xmm0
	movl	920(%rdi), %eax
	cmpl	$1, %eax
	mulsd	%xmm6, %xmm0
	movsd	824(%rdi), %xmm6
	movapd	%xmm6, %xmm5
	mulsd	%xmm2, %xmm5
	cvttsd2siq	%xmm5, %rdx
	movsd	880(%rdi), %xmm5
	movsd	%xmm5, 928(%rdi)
	je	.L1009
	jle	.L5971
	cmpl	$3, %eax
	je	.L1012
	cmpl	$4, %eax
	.p2align 4,,5
	jne	.L1008
	movapd	%xmm4, %xmm5
	movq	$0, 880(%rdi)
.L1008:
	movl	816(%rdi), %edx
	mulsd	%xmm3, %xmm1
	movsd	%xmm5, 872(%rdi)
	mulsd	952(%rdi), %xmm5
	movl	%edx, %eax
	addl	820(%rdi), %edx
	shrl	$16, %eax
	cvtsi2sdq	%rax, %xmm6
	movl	%edx, 816(%rdi)
	addsd	%xmm6, %xmm1
	movsd	664(%rdi), %xmm6
	mulsd	%xmm6, %xmm2
	cvttsd2siq	%xmm1, %rax
	movsd	720(%rdi), %xmm1
	cvttsd2siq	%xmm2, %rdx
	movsd	%xmm1, 768(%rdi)
	andl	$4095, %eax
	mulsd	waveform(,%rax,8), %xmm5
	movl	760(%rdi), %eax
	cmpl	$1, %eax
	mulsd	%xmm8, %xmm5
	je	.L1022
	jle	.L5972
	cmpl	$3, %eax
	je	.L1025
	cmpl	$4, %eax
	.p2align 4,,5
	jne	.L1021
	movapd	%xmm4, %xmm1
	movq	$0, 720(%rdi)
.L1021:
	movl	656(%rdi), %edx
	mulsd	%xmm5, %xmm3
	movsd	%xmm1, 712(%rdi)
	mulsd	792(%rdi), %xmm1
	addsd	%xmm10, %xmm0
	movl	%edx, %eax
	addl	660(%rdi), %edx
	shrl	$16, %eax
	cvtsi2sdq	%rax, %xmm2
	movl	%edx, 656(%rdi)
	addsd	%xmm2, %xmm3
	cvttsd2siq	%xmm3, %rax
	andl	$4095, %eax
	mulsd	waveform(,%rax,8), %xmm1
	mulsd	%xmm7, %xmm1
	addsd	%xmm1, %xmm0
	divsd	.LC8(%rip), %xmm0
	jmp	.L531
	.p2align 4,,10
	.p2align 3
.L537:
	movsd	184(%rdi), %xmm3
	movl	280(%rdi), %eax
	movsd	.LC21(%rip), %xmm2
	movapd	%xmm3, %xmm4
	movsd	240(%rdi), %xmm11
	cmpl	$1, %eax
	mulsd	%xmm2, %xmm4
	movsd	%xmm11, 288(%rdi)
	cvttsd2siq	%xmm4, %rdx
	je	.L879
	jle	.L5973
	cmpl	$3, %eax
	je	.L882
	cmpl	$4, %eax
	.p2align 4,,5
	jne	.L4812
	xorpd	%xmm4, %xmm4
	movsd	%xmm4, 240(%rdi)
	movapd	%xmm4, %xmm11
.L878:
	movl	176(%rdi), %edx
	movsd	%xmm11, 232(%rdi)
	mulsd	312(%rdi), %xmm11
	movsd	80(%rdi), %xmm10
	movl	%edx, %eax
	addl	180(%rdi), %edx
	movsd	%xmm10, 128(%rdi)
	shrl	$16, %eax
	cvtsi2sdq	%rax, %xmm3
	movl	%edx, 176(%rdi)
	addsd	%xmm4, %xmm3
	cvttsd2siq	%xmm3, %rax
	andl	$4095, %eax
	mulsd	waveform(,%rax,8), %xmm11
	movl	120(%rdi), %eax
	cmpl	$1, %eax
	mulsd	%xmm0, %xmm11
	movsd	24(%rdi), %xmm0
	movapd	%xmm0, %xmm3
	mulsd	%xmm2, %xmm3
	cvttsd2siq	%xmm3, %rdx
	je	.L892
	jle	.L5974
	cmpl	$3, %eax
	je	.L895
	cmpl	$4, %eax
	.p2align 4,,5
	jne	.L891
	movapd	%xmm4, %xmm10
	movq	$0, 80(%rdi)
.L891:
	movl	16(%rdi), %edx
	movsd	.LC0(%rip), %xmm3
	movsd	%xmm10, 72(%rdi)
	mulsd	152(%rdi), %xmm10
	mulsd	%xmm3, %xmm11
	movl	%edx, %eax
	addl	20(%rdi), %edx
	shrl	$16, %eax
	cvtsi2sdq	%rax, %xmm0
	movl	%edx, 16(%rdi)
	addsd	%xmm0, %xmm11
	movsd	504(%rdi), %xmm0
	cvttsd2siq	%xmm11, %rax
	andl	$4095, %eax
	mulsd	waveform(,%rax,8), %xmm10
	movl	600(%rdi), %eax
	cmpl	$1, %eax
	mulsd	%xmm5, %xmm10
	movapd	%xmm0, %xmm5
	mulsd	%xmm2, %xmm5
	cvttsd2siq	%xmm5, %rdx
	movsd	560(%rdi), %xmm5
	movsd	%xmm5, 608(%rdi)
	je	.L905
	jle	.L5975
	cmpl	$3, %eax
	je	.L908
	cmpl	$4, %eax
	.p2align 4,,5
	jne	.L904
	movapd	%xmm4, %xmm5
	movq	$0, 560(%rdi)
.L904:
	movl	496(%rdi), %edx
	movsd	%xmm5, 552(%rdi)
	mulsd	632(%rdi), %xmm5
	movl	%edx, %eax
	addl	500(%rdi), %edx
	shrl	$16, %eax
	cvtsi2sdq	%rax, %xmm0
	movl	%edx, 496(%rdi)
	addsd	%xmm4, %xmm0
	cvttsd2siq	%xmm0, %rax
	andl	$4095, %eax
	mulsd	waveform(,%rax,8), %xmm5
	movl	440(%rdi), %eax
	cmpl	$1, %eax
	mulsd	%xmm9, %xmm5
	movsd	344(%rdi), %xmm9
	movapd	%xmm9, %xmm0
	mulsd	%xmm2, %xmm0
	cvttsd2siq	%xmm0, %rdx
	movsd	400(%rdi), %xmm0
	movsd	%xmm0, 448(%rdi)
	je	.L918
	jle	.L5976
	cmpl	$3, %eax
	je	.L921
	cmpl	$4, %eax
	.p2align 4,,5
	jne	.L917
	movapd	%xmm4, %xmm0
	movq	$0, 400(%rdi)
.L917:
	movl	336(%rdi), %edx
	mulsd	%xmm3, %xmm5
	movsd	%xmm0, 392(%rdi)
	mulsd	472(%rdi), %xmm0
	movl	%edx, %eax
	addl	340(%rdi), %edx
	shrl	$16, %eax
	cvtsi2sdq	%rax, %xmm9
	movl	%edx, 336(%rdi)
	addsd	%xmm9, %xmm5
	cvttsd2siq	%xmm5, %rax
	andl	$4095, %eax
	mulsd	waveform(,%rax,8), %xmm0
	movl	920(%rdi), %eax
	cmpl	$1, %eax
	mulsd	%xmm6, %xmm0
	movsd	824(%rdi), %xmm6
	movapd	%xmm6, %xmm5
	mulsd	%xmm2, %xmm5
	cvttsd2siq	%xmm5, %rdx
	movsd	880(%rdi), %xmm5
	movsd	%xmm5, 928(%rdi)
	je	.L931
	jle	.L5977
	cmpl	$3, %eax
	je	.L934
	cmpl	$4, %eax
	.p2align 4,,5
	jne	.L930
	movapd	%xmm4, %xmm5
	movq	$0, 880(%rdi)
.L930:
	movl	816(%rdi), %edx
	mulsd	%xmm3, %xmm1
	movsd	%xmm5, 872(%rdi)
	mulsd	952(%rdi), %xmm5
	movl	%edx, %eax
	addl	820(%rdi), %edx
	shrl	$16, %eax
	cvtsi2sdq	%rax, %xmm6
	movl	%edx, 816(%rdi)
	addsd	%xmm6, %xmm1
	cvttsd2siq	%xmm1, %rax
	andl	$4095, %eax
	movsd	waveform(,%rax,8), %xmm1
	movl	760(%rdi), %eax
	mulsd	%xmm5, %xmm1
	movsd	664(%rdi), %xmm5
	cmpl	$1, %eax
	mulsd	%xmm5, %xmm2
	mulsd	%xmm8, %xmm1
	cvttsd2siq	%xmm2, %rdx
	movsd	720(%rdi), %xmm2
	movsd	%xmm2, 768(%rdi)
	je	.L944
	jle	.L5978
	cmpl	$3, %eax
	je	.L947
	cmpl	$4, %eax
	.p2align 4,,5
	jne	.L3245
	movq	$0, 720(%rdi)
.L943:
	movl	656(%rdi), %edx
	mulsd	%xmm1, %xmm3
	movsd	%xmm4, 712(%rdi)
	mulsd	792(%rdi), %xmm4
	addsd	%xmm10, %xmm0
	movl	%edx, %eax
	addl	660(%rdi), %edx
	shrl	$16, %eax
	cvtsi2sdq	%rax, %xmm2
	movl	%edx, 656(%rdi)
	addsd	%xmm2, %xmm3
	cvttsd2siq	%xmm3, %rax
	andl	$4095, %eax
	mulsd	waveform(,%rax,8), %xmm4
	mulsd	%xmm7, %xmm4
	addsd	%xmm4, %xmm0
	divsd	.LC8(%rip), %xmm0
	jmp	.L531
	.p2align 4,,10
	.p2align 3
.L536:
	movsd	344(%rdi), %xmm3
	movl	440(%rdi), %eax
	movsd	.LC21(%rip), %xmm2
	movapd	%xmm3, %xmm4
	movsd	400(%rdi), %xmm10
	cmpl	$1, %eax
	mulsd	%xmm2, %xmm4
	movsd	%xmm10, 448(%rdi)
	cvttsd2siq	%xmm4, %rdx
	je	.L801
	jle	.L5979
	cmpl	$3, %eax
	je	.L804
	cmpl	$4, %eax
	.p2align 4,,5
	jne	.L4788
	xorpd	%xmm4, %xmm4
	movsd	%xmm4, 400(%rdi)
	movapd	%xmm4, %xmm10
.L800:
	movl	336(%rdi), %edx
	movsd	%xmm10, 392(%rdi)
	mulsd	472(%rdi), %xmm10
	movl	%edx, %eax
	addl	340(%rdi), %edx
	shrl	$16, %eax
	cvtsi2sdq	%rax, %xmm3
	movl	%edx, 336(%rdi)
	addsd	%xmm4, %xmm3
	cvttsd2siq	%xmm3, %rax
	movsd	184(%rdi), %xmm3
	andl	$4095, %eax
	mulsd	waveform(,%rax,8), %xmm10
	movl	280(%rdi), %eax
	cmpl	$1, %eax
	mulsd	%xmm6, %xmm10
	movapd	%xmm3, %xmm6
	mulsd	%xmm2, %xmm6
	cvttsd2siq	%xmm6, %rdx
	movsd	240(%rdi), %xmm6
	movsd	%xmm6, 288(%rdi)
	je	.L814
	jle	.L5980
	cmpl	$3, %eax
	je	.L817
	cmpl	$4, %eax
	.p2align 4,,5
	jne	.L813
	movapd	%xmm4, %xmm6
	movq	$0, 240(%rdi)
.L813:
	movl	176(%rdi), %edx
	movsd	.LC0(%rip), %xmm3
	movsd	%xmm6, 232(%rdi)
	mulsd	312(%rdi), %xmm6
	mulsd	%xmm3, %xmm10
	movl	%edx, %eax
	addl	180(%rdi), %edx
	shrl	$16, %eax
	cvtsi2sdq	%rax, %xmm11
	movl	%edx, 176(%rdi)
	addsd	%xmm11, %xmm10
	cvttsd2siq	%xmm10, %rax
	movsd	24(%rdi), %xmm10
	andl	$4095, %eax
	mulsd	waveform(,%rax,8), %xmm6
	movl	120(%rdi), %eax
	cmpl	$1, %eax
	mulsd	%xmm0, %xmm6
	movapd	%xmm10, %xmm0
	mulsd	%xmm2, %xmm0
	cvttsd2siq	%xmm0, %rdx
	movsd	80(%rdi), %xmm0
	movsd	%xmm0, 128(%rdi)
	je	.L827
	jle	.L5981
	cmpl	$3, %eax
	je	.L830
	cmpl	$4, %eax
	.p2align 4,,5
	jne	.L826
	movapd	%xmm4, %xmm0
	movq	$0, 80(%rdi)
.L826:
	movl	16(%rdi), %edx
	mulsd	%xmm3, %xmm6
	movsd	%xmm0, 72(%rdi)
	mulsd	152(%rdi), %xmm0
	movl	%edx, %eax
	addl	20(%rdi), %edx
	shrl	$16, %eax
	cvtsi2sdq	%rax, %xmm10
	movl	%edx, 16(%rdi)
	addsd	%xmm10, %xmm6
	cvttsd2siq	%xmm6, %rax
	movsd	824(%rdi), %xmm6
	andl	$4095, %eax
	mulsd	waveform(,%rax,8), %xmm0
	movl	920(%rdi), %eax
	cmpl	$1, %eax
	mulsd	%xmm5, %xmm0
	movapd	%xmm6, %xmm5
	mulsd	%xmm2, %xmm5
	cvttsd2siq	%xmm5, %rdx
	movsd	880(%rdi), %xmm5
	movsd	%xmm5, 928(%rdi)
	je	.L840
	jle	.L5982
	cmpl	$3, %eax
	je	.L843
	cmpl	$4, %eax
	.p2align 4,,5
	jne	.L839
	movapd	%xmm4, %xmm5
	movq	$0, 880(%rdi)
.L839:
	movl	816(%rdi), %edx
	mulsd	%xmm3, %xmm1
	movsd	%xmm5, 872(%rdi)
	mulsd	952(%rdi), %xmm5
	movl	%edx, %eax
	addl	820(%rdi), %edx
	shrl	$16, %eax
	cvtsi2sdq	%rax, %xmm6
	movl	%edx, 816(%rdi)
	addsd	%xmm6, %xmm1
	movsd	664(%rdi), %xmm6
	cvttsd2siq	%xmm1, %rax
	andl	$4095, %eax
	movsd	waveform(,%rax,8), %xmm1
	movl	760(%rdi), %eax
	mulsd	%xmm5, %xmm1
	movapd	%xmm6, %xmm5
	cmpl	$1, %eax
	mulsd	%xmm2, %xmm5
	mulsd	%xmm8, %xmm1
	cvttsd2siq	%xmm5, %rdx
	movsd	720(%rdi), %xmm5
	movsd	%xmm5, 768(%rdi)
	je	.L853
	jle	.L5983
	cmpl	$3, %eax
	je	.L856
	cmpl	$4, %eax
	.p2align 4,,5
	jne	.L852
	movapd	%xmm4, %xmm5
	movq	$0, 720(%rdi)
.L852:
	movl	656(%rdi), %edx
	mulsd	%xmm3, %xmm1
	movsd	%xmm5, 712(%rdi)
	mulsd	792(%rdi), %xmm5
	movl	%edx, %eax
	addl	660(%rdi), %edx
	shrl	$16, %eax
	cvtsi2sdq	%rax, %xmm6
	movl	%edx, 656(%rdi)
	addsd	%xmm6, %xmm1
	movsd	504(%rdi), %xmm6
	mulsd	%xmm6, %xmm2
	cvttsd2siq	%xmm1, %rax
	movsd	560(%rdi), %xmm1
	cvttsd2siq	%xmm2, %rdx
	movsd	%xmm1, 608(%rdi)
	andl	$4095, %eax
	mulsd	waveform(,%rax,8), %xmm5
	movl	600(%rdi), %eax
	cmpl	$1, %eax
	mulsd	%xmm7, %xmm5
	je	.L866
	jle	.L5984
	cmpl	$3, %eax
	je	.L869
	cmpl	$4, %eax
	.p2align 4,,5
	jne	.L865
	movapd	%xmm4, %xmm1
	movq	$0, 560(%rdi)
.L865:
	movl	496(%rdi), %edx
	mulsd	%xmm5, %xmm3
	movsd	%xmm1, 552(%rdi)
	mulsd	632(%rdi), %xmm1
	movl	%edx, %eax
	addl	500(%rdi), %edx
	shrl	$16, %eax
	cvtsi2sdq	%rax, %xmm2
	movl	%edx, 496(%rdi)
	addsd	%xmm2, %xmm3
	cvttsd2siq	%xmm3, %rax
	andl	$4095, %eax
	mulsd	waveform(,%rax,8), %xmm1
	mulsd	%xmm9, %xmm1
	addsd	%xmm1, %xmm0
	mulsd	.LC6(%rip), %xmm0
	jmp	.L531
	.p2align 4,,10
	.p2align 3
.L535:
	movsd	344(%rdi), %xmm3
	movl	440(%rdi), %eax
	movsd	.LC21(%rip), %xmm2
	movapd	%xmm3, %xmm4
	movsd	400(%rdi), %xmm11
	cmpl	$1, %eax
	mulsd	%xmm2, %xmm4
	movsd	%xmm11, 448(%rdi)
	cvttsd2siq	%xmm4, %rdx
	je	.L723
	jle	.L5985
	cmpl	$3, %eax
	je	.L726
	cmpl	$4, %eax
	.p2align 4,,5
	jne	.L4764
	xorpd	%xmm4, %xmm4
	movsd	%xmm4, 400(%rdi)
	movapd	%xmm4, %xmm11
.L722:
	movl	336(%rdi), %edx
	movsd	%xmm11, 392(%rdi)
	mulsd	472(%rdi), %xmm11
	movsd	240(%rdi), %xmm10
	movl	%edx, %eax
	addl	340(%rdi), %edx
	movsd	%xmm10, 288(%rdi)
	shrl	$16, %eax
	cvtsi2sdq	%rax, %xmm3
	movl	%edx, 336(%rdi)
	addsd	%xmm4, %xmm3
	cvttsd2siq	%xmm3, %rax
	movsd	184(%rdi), %xmm3
	andl	$4095, %eax
	mulsd	waveform(,%rax,8), %xmm11
	movl	280(%rdi), %eax
	cmpl	$1, %eax
	mulsd	%xmm6, %xmm11
	movapd	%xmm3, %xmm6
	mulsd	%xmm2, %xmm6
	cvttsd2siq	%xmm6, %rdx
	je	.L736
	jle	.L5986
	cmpl	$3, %eax
	je	.L739
	cmpl	$4, %eax
	.p2align 4,,5
	jne	.L735
	movapd	%xmm4, %xmm10
	movq	$0, 240(%rdi)
.L735:
	movl	176(%rdi), %edx
	movsd	.LC0(%rip), %xmm3
	movsd	%xmm10, 232(%rdi)
	mulsd	312(%rdi), %xmm10
	mulsd	%xmm3, %xmm11
	movl	%edx, %eax
	addl	180(%rdi), %edx
	shrl	$16, %eax
	cvtsi2sdq	%rax, %xmm6
	movl	%edx, 176(%rdi)
	addsd	%xmm6, %xmm11
	cvttsd2siq	%xmm11, %rax
	andl	$4095, %eax
	mulsd	waveform(,%rax,8), %xmm10
	movl	120(%rdi), %eax
	cmpl	$1, %eax
	mulsd	%xmm0, %xmm10
	movsd	24(%rdi), %xmm0
	movapd	%xmm0, %xmm6
	mulsd	%xmm2, %xmm6
	cvttsd2siq	%xmm6, %rdx
	movsd	80(%rdi), %xmm6
	movsd	%xmm6, 128(%rdi)
	je	.L749
	jle	.L5987
	cmpl	$3, %eax
	je	.L752
	cmpl	$4, %eax
	.p2align 4,,5
	jne	.L748
	movapd	%xmm4, %xmm6
	movq	$0, 80(%rdi)
.L748:
	movl	16(%rdi), %edx
	mulsd	%xmm3, %xmm10
	movsd	%xmm6, 72(%rdi)
	mulsd	152(%rdi), %xmm6
	movl	%edx, %eax
	addl	20(%rdi), %edx
	shrl	$16, %eax
	cvtsi2sdq	%rax, %xmm0
	movl	%edx, 16(%rdi)
	addsd	%xmm0, %xmm10
	cvttsd2siq	%xmm10, %rax
	andl	$4095, %eax
	mulsd	waveform(,%rax,8), %xmm6
	movl	920(%rdi), %eax
	cmpl	$1, %eax
	mulsd	%xmm5, %xmm6
	movsd	824(%rdi), %xmm5
	movapd	%xmm5, %xmm0
	mulsd	%xmm2, %xmm0
	cvttsd2siq	%xmm0, %rdx
	movsd	880(%rdi), %xmm0
	movsd	%xmm0, 928(%rdi)
	je	.L762
	jle	.L5988
	cmpl	$3, %eax
	je	.L765
	cmpl	$4, %eax
	.p2align 4,,5
	jne	.L761
	movapd	%xmm4, %xmm0
	movq	$0, 880(%rdi)
.L761:
	movl	816(%rdi), %edx
	mulsd	%xmm3, %xmm1
	movsd	%xmm0, 872(%rdi)
	movl	%edx, %eax
	addl	820(%rdi), %edx
	shrl	$16, %eax
	cvtsi2sdq	%rax, %xmm5
	movl	%edx, 816(%rdi)
	addsd	%xmm5, %xmm1
	cvttsd2siq	%xmm1, %rax
	movsd	952(%rdi), %xmm1
	mulsd	%xmm0, %xmm1
	movsd	664(%rdi), %xmm0
	movapd	%xmm0, %xmm5
	mulsd	%xmm2, %xmm5
	andl	$4095, %eax
	mulsd	waveform(,%rax,8), %xmm1
	movl	760(%rdi), %eax
	cvttsd2siq	%xmm5, %rdx
	movsd	720(%rdi), %xmm5
	cmpl	$1, %eax
	movsd	%xmm5, 768(%rdi)
	mulsd	%xmm8, %xmm1
	je	.L775
	jle	.L5989
	cmpl	$3, %eax
	je	.L778
	cmpl	$4, %eax
	.p2align 4,,5
	jne	.L774
	movapd	%xmm4, %xmm5
	movq	$0, 720(%rdi)
.L774:
	movl	656(%rdi), %edx
	movapd	%xmm1, %xmm0
	movsd	%xmm5, 712(%rdi)
	mulsd	792(%rdi), %xmm5
	mulsd	%xmm3, %xmm0
	movl	%edx, %eax
	addl	660(%rdi), %edx
	shrl	$16, %eax
	cvtsi2sdq	%rax, %xmm8
	movl	%edx, 656(%rdi)
	addsd	%xmm8, %xmm0
	cvttsd2siq	%xmm0, %rax
	andl	$4095, %eax
	mulsd	waveform(,%rax,8), %xmm5
	mulsd	%xmm7, %xmm5
	jmp	.L5782
	.p2align 4,,10
	.p2align 3
.L534:
	movsd	184(%rdi), %xmm3
	movl	280(%rdi), %eax
	movsd	.LC21(%rip), %xmm2
	movapd	%xmm3, %xmm4
	movsd	240(%rdi), %xmm10
	cmpl	$1, %eax
	mulsd	%xmm2, %xmm4
	movsd	%xmm10, 288(%rdi)
	cvttsd2siq	%xmm4, %rdx
	je	.L645
	jle	.L5990
	cmpl	$3, %eax
	je	.L648
	cmpl	$4, %eax
	.p2align 4,,5
	jne	.L4740
	xorpd	%xmm4, %xmm4
	movsd	%xmm4, 240(%rdi)
	movapd	%xmm4, %xmm10
.L644:
	movl	176(%rdi), %edx
	movsd	.LC0(%rip), %xmm3
	movsd	%xmm10, 232(%rdi)
	mulsd	%xmm3, %xmm1
	movl	%edx, %eax
	addl	180(%rdi), %edx
	shrl	$16, %eax
	cvtsi2sdq	%rax, %xmm11
	movl	%edx, 176(%rdi)
	addsd	%xmm11, %xmm1
	cvttsd2siq	%xmm1, %rax
	movsd	312(%rdi), %xmm1
	mulsd	%xmm10, %xmm1
	andl	$4095, %eax
	mulsd	waveform(,%rax,8), %xmm1
	movl	120(%rdi), %eax
	cmpl	$1, %eax
	mulsd	%xmm0, %xmm1
	movsd	24(%rdi), %xmm0
	movapd	%xmm0, %xmm10
	mulsd	%xmm2, %xmm10
	cvttsd2siq	%xmm10, %rdx
	movsd	80(%rdi), %xmm10
	movsd	%xmm10, 128(%rdi)
	je	.L658
	jle	.L5991
	cmpl	$3, %eax
	je	.L661
	cmpl	$4, %eax
	.p2align 4,,5
	jne	.L657
	movapd	%xmm4, %xmm10
	movq	$0, 80(%rdi)
.L657:
	movl	16(%rdi), %edx
	movapd	%xmm1, %xmm0
	movsd	%xmm10, 72(%rdi)
	mulsd	152(%rdi), %xmm10
	mulsd	%xmm3, %xmm0
	movl	%edx, %eax
	addl	20(%rdi), %edx
	shrl	$16, %eax
	cvtsi2sdq	%rax, %xmm11
	movl	%edx, 16(%rdi)
	addsd	%xmm11, %xmm0
	cvttsd2siq	%xmm0, %rax
	movsd	824(%rdi), %xmm0
	andl	$4095, %eax
	mulsd	waveform(,%rax,8), %xmm10
	movl	920(%rdi), %eax
	cmpl	$1, %eax
	mulsd	%xmm5, %xmm10
	movapd	%xmm0, %xmm5
	mulsd	%xmm2, %xmm5
	cvttsd2siq	%xmm5, %rdx
	movsd	880(%rdi), %xmm5
	movsd	%xmm5, 928(%rdi)
	je	.L671
	jle	.L5992
	cmpl	$3, %eax
	je	.L674
	cmpl	$4, %eax
	.p2align 4,,5
	jne	.L670
	movapd	%xmm4, %xmm5
	movq	$0, 880(%rdi)
.L670:
	movl	816(%rdi), %edx
	movsd	%xmm5, 872(%rdi)
	mulsd	952(%rdi), %xmm5
	movl	%edx, %eax
	addl	820(%rdi), %edx
	shrl	$16, %eax
	cvtsi2sdq	%rax, %xmm0
	movl	%edx, 816(%rdi)
	addsd	%xmm4, %xmm0
	cvttsd2siq	%xmm0, %rax
	andl	$4095, %eax
	mulsd	waveform(,%rax,8), %xmm5
	movl	760(%rdi), %eax
	cmpl	$1, %eax
	mulsd	%xmm8, %xmm5
	movsd	664(%rdi), %xmm8
	movapd	%xmm8, %xmm0
	mulsd	%xmm2, %xmm0
	cvttsd2siq	%xmm0, %rdx
	movsd	720(%rdi), %xmm0
	movsd	%xmm0, 768(%rdi)
	je	.L684
	jle	.L5993
	cmpl	$3, %eax
	je	.L687
	cmpl	$4, %eax
	.p2align 4,,5
	jne	.L683
	movapd	%xmm4, %xmm0
	movq	$0, 720(%rdi)
.L683:
	movl	656(%rdi), %edx
	movsd	%xmm0, 712(%rdi)
.L5818:
	movl	%edx, %eax
	mulsd	%xmm3, %xmm5
	addl	660(%rdi), %edx
	shrl	$16, %eax
	mulsd	792(%rdi), %xmm0
	cvtsi2sdq	%rax, %xmm8
	movl	%edx, 656(%rdi)
	addsd	%xmm8, %xmm5
	cvttsd2siq	%xmm5, %rax
	andl	$4095, %eax
	mulsd	waveform(,%rax,8), %xmm0
	movl	600(%rdi), %eax
	cmpl	$1, %eax
	mulsd	%xmm7, %xmm0
	movsd	504(%rdi), %xmm7
	movapd	%xmm7, %xmm5
	mulsd	%xmm2, %xmm5
	cvttsd2siq	%xmm5, %rdx
	movsd	560(%rdi), %xmm5
	movsd	%xmm5, 608(%rdi)
	je	.L697
	jle	.L5994
	cmpl	$3, %eax
	je	.L700
	cmpl	$4, %eax
	.p2align 4,,5
	jne	.L696
	movapd	%xmm4, %xmm5
	movq	$0, 560(%rdi)
.L696:
	movl	496(%rdi), %edx
	mulsd	%xmm3, %xmm0
	movsd	%xmm5, 552(%rdi)
	mulsd	632(%rdi), %xmm5
	movl	%edx, %eax
	addl	500(%rdi), %edx
	shrl	$16, %eax
	cvtsi2sdq	%rax, %xmm7
	movl	%edx, 496(%rdi)
	addsd	%xmm7, %xmm0
	cvttsd2siq	%xmm0, %rax
	andl	$4095, %eax
	mulsd	waveform(,%rax,8), %xmm5
	mulsd	%xmm9, %xmm5
	jmp	.L5778
	.p2align 4,,10
	.p2align 3
.L532:
	movsd	184(%rdi), %xmm3
	movl	280(%rdi), %eax
	movsd	.LC21(%rip), %xmm2
	movapd	%xmm3, %xmm4
	movsd	240(%rdi), %xmm11
	cmpl	$1, %eax
	mulsd	%xmm2, %xmm4
	movsd	%xmm11, 288(%rdi)
	cvttsd2siq	%xmm4, %rdx
	je	.L567
	jle	.L5995
	cmpl	$3, %eax
	je	.L570
	cmpl	$4, %eax
	.p2align 4,,5
	jne	.L4716
	xorpd	%xmm4, %xmm4
	movsd	%xmm4, 240(%rdi)
	movapd	%xmm4, %xmm11
.L566:
	movl	176(%rdi), %edx
	movsd	%xmm11, 232(%rdi)
	mulsd	312(%rdi), %xmm11
	movsd	80(%rdi), %xmm10
	movl	%edx, %eax
	addl	180(%rdi), %edx
	movsd	%xmm10, 128(%rdi)
	shrl	$16, %eax
	cvtsi2sdq	%rax, %xmm3
	movl	%edx, 176(%rdi)
	addsd	%xmm4, %xmm3
	cvttsd2siq	%xmm3, %rax
	andl	$4095, %eax
	mulsd	waveform(,%rax,8), %xmm11
	movl	120(%rdi), %eax
	cmpl	$1, %eax
	mulsd	%xmm0, %xmm11
	movsd	24(%rdi), %xmm0
	movapd	%xmm0, %xmm3
	mulsd	%xmm2, %xmm3
	cvttsd2siq	%xmm3, %rdx
	je	.L580
	jle	.L5996
	cmpl	$3, %eax
	je	.L583
	cmpl	$4, %eax
	.p2align 4,,5
	jne	.L579
	movapd	%xmm4, %xmm10
	movq	$0, 80(%rdi)
.L579:
	movl	16(%rdi), %edx
	movsd	.LC0(%rip), %xmm3
	movsd	%xmm10, 72(%rdi)
	mulsd	152(%rdi), %xmm10
	mulsd	%xmm3, %xmm11
	movl	%edx, %eax
	addl	20(%rdi), %edx
	shrl	$16, %eax
	cvtsi2sdq	%rax, %xmm0
	movl	%edx, 16(%rdi)
	addsd	%xmm0, %xmm11
	cvttsd2siq	%xmm11, %rax
	andl	$4095, %eax
	mulsd	waveform(,%rax,8), %xmm10
	movl	920(%rdi), %eax
	cmpl	$1, %eax
	mulsd	%xmm5, %xmm10
	movsd	824(%rdi), %xmm5
	movapd	%xmm5, %xmm0
	mulsd	%xmm2, %xmm0
	cvttsd2siq	%xmm0, %rdx
	movsd	880(%rdi), %xmm0
	movsd	%xmm0, 928(%rdi)
	je	.L593
	jle	.L5997
	cmpl	$3, %eax
	je	.L596
	cmpl	$4, %eax
	.p2align 4,,5
	jne	.L592
	movapd	%xmm4, %xmm0
	movq	$0, 880(%rdi)
.L592:
	movl	816(%rdi), %edx
	mulsd	%xmm3, %xmm1
	movsd	%xmm0, 872(%rdi)
	movl	%edx, %eax
	addl	820(%rdi), %edx
	shrl	$16, %eax
	cvtsi2sdq	%rax, %xmm5
	movl	%edx, 816(%rdi)
	addsd	%xmm5, %xmm1
	movsd	664(%rdi), %xmm5
	cvttsd2siq	%xmm1, %rax
	movsd	952(%rdi), %xmm1
	mulsd	%xmm0, %xmm1
	movapd	%xmm5, %xmm0
	mulsd	%xmm2, %xmm0
	cvttsd2siq	%xmm0, %rdx
	movsd	720(%rdi), %xmm0
	andl	$4095, %eax
	mulsd	waveform(,%rax,8), %xmm1
	movl	760(%rdi), %eax
	movsd	%xmm0, 768(%rdi)
	cmpl	$1, %eax
	mulsd	%xmm8, %xmm1
	je	.L606
	jle	.L5998
	cmpl	$3, %eax
	je	.L609
	cmpl	$4, %eax
	.p2align 4,,5
	jne	.L605
	movapd	%xmm4, %xmm0
	movq	$0, 720(%rdi)
.L605:
	movsd	%xmm0, 712(%rdi)
	movl	656(%rdi), %edx
	movapd	%xmm1, %xmm5
	jmp	.L5818
	.p2align 4,,10
	.p2align 3
.L565:
	movsd	824(%rdi), %xmm0
	movl	920(%rdi), %eax
	movsd	.LC21(%rip), %xmm2
	movapd	%xmm0, %xmm3
	cmpl	$1, %eax
	mulsd	%xmm2, %xmm3
	cvttsd2siq	%xmm3, %rdx
	movsd	880(%rdi), %xmm3
	movsd	%xmm3, 928(%rdi)
	je	.L3061
	jle	.L5999
	cmpl	$3, %eax
	je	.L3064
	cmpl	$4, %eax
	.p2align 4,,5
	jne	.L5484
	xorpd	%xmm4, %xmm4
	movsd	%xmm4, 880(%rdi)
	movapd	%xmm4, %xmm3
.L3060:
	movsd	664(%rdi), %xmm0
	movl	820(%rdi), %eax
	movsd	%xmm3, 872(%rdi)
	addl	%eax, 816(%rdi)
	movapd	%xmm0, %xmm3
	movl	760(%rdi), %eax
	mulsd	%xmm2, %xmm3
	cmpl	$1, %eax
	cvttsd2siq	%xmm3, %rdx
	movsd	720(%rdi), %xmm3
	movsd	%xmm3, 768(%rdi)
	je	.L3072
	jle	.L6000
	cmpl	$3, %eax
	je	.L3075
	cmpl	$4, %eax
	.p2align 4,,5
	jne	.L3071
	movapd	%xmm4, %xmm3
	movq	$0, 720(%rdi)
.L3071:
	movsd	504(%rdi), %xmm0
	movl	660(%rdi), %eax
	movsd	%xmm3, 712(%rdi)
	addl	%eax, 656(%rdi)
	movl	600(%rdi), %eax
	movapd	%xmm0, %xmm3
	mulsd	%xmm2, %xmm3
	cmpl	$1, %eax
	cvttsd2siq	%xmm3, %rdx
	movsd	560(%rdi), %xmm3
	movsd	%xmm3, 608(%rdi)
	je	.L3083
	jle	.L6001
	cmpl	$3, %eax
	je	.L3086
	cmpl	$4, %eax
	.p2align 4,,5
	jne	.L3082
	movapd	%xmm4, %xmm3
	movq	$0, 560(%rdi)
.L3082:
	movsd	344(%rdi), %xmm0
	movl	500(%rdi), %eax
	movsd	%xmm3, 552(%rdi)
	addl	%eax, 496(%rdi)
	movl	440(%rdi), %eax
	movapd	%xmm0, %xmm3
	mulsd	%xmm2, %xmm3
	cmpl	$1, %eax
	cvttsd2siq	%xmm3, %rdx
	movsd	400(%rdi), %xmm3
	movsd	%xmm3, 448(%rdi)
	je	.L3094
	jle	.L6002
	cmpl	$3, %eax
	je	.L3097
	cmpl	$4, %eax
	.p2align 4,,5
	jne	.L3093
	movapd	%xmm4, %xmm3
	movq	$0, 400(%rdi)
.L3093:
	movsd	184(%rdi), %xmm0
	movl	340(%rdi), %eax
	movsd	%xmm3, 392(%rdi)
	addl	%eax, 336(%rdi)
	movl	280(%rdi), %eax
	movapd	%xmm0, %xmm3
	mulsd	%xmm2, %xmm3
	cmpl	$1, %eax
	cvttsd2siq	%xmm3, %rdx
	movsd	240(%rdi), %xmm3
	movsd	%xmm3, 288(%rdi)
	je	.L3105
	jle	.L6003
	cmpl	$3, %eax
	je	.L3108
	cmpl	$4, %eax
	.p2align 4,,5
	jne	.L3104
	movapd	%xmm4, %xmm3
	movq	$0, 240(%rdi)
.L3104:
	movsd	%xmm3, 232(%rdi)
	movl	180(%rdi), %eax
	addl	%eax, 176(%rdi)
	movsd	24(%rdi), %xmm3
	movl	120(%rdi), %eax
	movsd	80(%rdi), %xmm0
	mulsd	%xmm3, %xmm2
	cmpl	$1, %eax
	movsd	%xmm0, 128(%rdi)
	cvttsd2siq	%xmm2, %rdx
	je	.L3116
	jle	.L6004
	cmpl	$3, %eax
	je	.L3119
	cmpl	$4, %eax
	.p2align 4,,5
	jne	.L3115
	movapd	%xmm4, %xmm0
	movq	$0, 80(%rdi)
.L3115:
	movl	16(%rdi), %edx
	movsd	%xmm0, 72(%rdi)
	mulsd	152(%rdi), %xmm0
	movl	%edx, %eax
	addl	20(%rdi), %edx
	shrl	$16, %eax
	cvtsi2sdq	%rax, %xmm2
	movl	%edx, 16(%rdi)
	addsd	%xmm4, %xmm2
	cvttsd2siq	%xmm2, %rax
	andl	$4095, %eax
	mulsd	waveform(,%rax,8), %xmm0
	mulsd	%xmm5, %xmm0
	divsd	.LC3(%rip), %xmm0
	jmp	.L531
	.p2align 4,,10
	.p2align 3
.L5924:
	testl	%eax, %eax
	jne	.L1723
	addsd	408(%rdi), %xmm5
	movl	%edx, %edx
	movsd	env_curve(,%rdx,8), %xmm0
	movsd	%xmm0, 400(%rdi)
	ucomisd	.LC1(%rip), %xmm5
	movsd	%xmm5, 344(%rdi)
	jb	.L1723
	movl	$1, 440(%rdi)
	movq	$0, 344(%rdi)
	jmp	.L1723
	.p2align 4,,10
	.p2align 3
.L5956:
	testl	%eax, %eax
	jne	.L1255
	addsd	408(%rdi), %xmm7
	movl	%edx, %edx
	movsd	env_curve(,%rdx,8), %xmm0
	movsd	%xmm0, 400(%rdi)
	ucomisd	.LC1(%rip), %xmm7
	movsd	%xmm7, 344(%rdi)
	jb	.L1255
	movl	$1, 440(%rdi)
	movq	$0, 344(%rdi)
	jmp	.L1255
	.p2align 4,,10
	.p2align 3
.L5945:
	testl	%eax, %eax
	jne	.L1411
	addsd	568(%rdi), %xmm7
	movl	%edx, %edx
	movsd	env_curve(,%rdx,8), %xmm0
	movsd	%xmm0, 560(%rdi)
	ucomisd	.LC1(%rip), %xmm7
	movsd	%xmm7, 504(%rdi)
	jb	.L1411
	movl	$1, 600(%rdi)
	movq	$0, 504(%rdi)
	jmp	.L1411
	.p2align 4,,10
	.p2align 3
.L1727:
	movsd	.LC1(%rip), %xmm2
	addsd	432(%rdi), %xmm5
	movl	%edx, %edx
	movapd	%xmm2, %xmm0
	subsd	env_curve(,%rdx,8), %xmm0
	ucomisd	%xmm2, %xmm5
	movsd	%xmm5, 344(%rdi)
	movsd	%xmm0, 400(%rdi)
	jb	.L1723
.L5594:
	movl	$4, 440(%rdi)
	jmp	.L1723
	.p2align 4,,10
	.p2align 3
.L1259:
	movsd	.LC1(%rip), %xmm2
	addsd	432(%rdi), %xmm7
	movl	%edx, %edx
	movapd	%xmm2, %xmm0
	subsd	env_curve(,%rdx,8), %xmm0
	ucomisd	%xmm2, %xmm7
	movsd	%xmm7, 344(%rdi)
	movsd	%xmm0, 400(%rdi)
	jb	.L1255
.L5558:
	movl	$4, 440(%rdi)
	jmp	.L1255
	.p2align 4,,10
	.p2align 3
.L1256:
	movsd	.LC1(%rip), %xmm2
	movl	%edx, %edx
	movsd	424(%rdi), %xmm4
	movapd	%xmm2, %xmm0
	subsd	env_curve(,%rdx,8), %xmm0
	ucomisd	%xmm0, %xmm4
	movsd	%xmm0, 400(%rdi)
	jbe	.L4926
	movl	$2, 440(%rdi)
	jmp	.L1255
	.p2align 4,,10
	.p2align 3
.L1724:
	movsd	.LC1(%rip), %xmm2
	movl	%edx, %edx
	movsd	424(%rdi), %xmm4
	movapd	%xmm2, %xmm0
	subsd	env_curve(,%rdx,8), %xmm0
	ucomisd	%xmm0, %xmm4
	movsd	%xmm0, 400(%rdi)
	jbe	.L5070
	movl	$2, 440(%rdi)
	jmp	.L1723
	.p2align 4,,10
	.p2align 3
.L1415:
	movsd	.LC1(%rip), %xmm2
	addsd	592(%rdi), %xmm7
	movl	%edx, %edx
	movapd	%xmm2, %xmm0
	subsd	env_curve(,%rdx,8), %xmm0
	ucomisd	%xmm2, %xmm7
	movsd	%xmm7, 504(%rdi)
	movsd	%xmm0, 560(%rdi)
	jb	.L1411
.L5570:
	movl	$4, 600(%rdi)
	jmp	.L1411
	.p2align 4,,10
	.p2align 3
.L1412:
	movsd	.LC1(%rip), %xmm2
	movl	%edx, %edx
	movsd	584(%rdi), %xmm4
	movapd	%xmm2, %xmm0
	subsd	env_curve(,%rdx,8), %xmm0
	ucomisd	%xmm0, %xmm4
	movsd	%xmm0, 560(%rdi)
	jbe	.L4974
	movl	$2, 600(%rdi)
	jmp	.L1411
	.p2align 4,,10
	.p2align 3
.L5955:
	testl	%eax, %eax
	jne	.L1242
	addsd	568(%rdi), %xmm7
	movl	%edx, %edx
	movsd	env_curve(,%rdx,8), %xmm5
	movsd	%xmm5, 560(%rdi)
	ucomisd	.LC1(%rip), %xmm7
	movsd	%xmm7, 504(%rdi)
	jb	.L1242
	movl	$1, 600(%rdi)
	movq	$0, 504(%rdi)
	jmp	.L1242
	.p2align 4,,10
	.p2align 3
.L5854:
	testl	%eax, %eax
	jne	.L2657
	addsd	88(%rdi), %xmm6
	movl	%edx, %edx
	movsd	env_curve(,%rdx,8), %xmm0
	movsd	%xmm0, 80(%rdi)
	ucomisd	.LC1(%rip), %xmm6
	movsd	%xmm6, 24(%rdi)
	jb	.L2657
	movl	$1, 120(%rdi)
	movq	$0, 24(%rdi)
	jmp	.L2657
	.p2align 4,,10
	.p2align 3
.L5994:
	testl	%eax, %eax
	jne	.L696
	addsd	568(%rdi), %xmm7
	movl	%edx, %edx
	movsd	env_curve(,%rdx,8), %xmm5
	movsd	%xmm5, 560(%rdi)
	ucomisd	.LC1(%rip), %xmm7
	movsd	%xmm7, 504(%rdi)
	jb	.L696
	movl	$1, 600(%rdi)
	movq	$0, 504(%rdi)
	jmp	.L696
	.p2align 4,,10
	.p2align 3
.L5913:
	testl	%eax, %eax
	jne	.L1879
	addsd	88(%rdi), %xmm6
	movl	%edx, %edx
	movsd	env_curve(,%rdx,8), %xmm0
	movsd	%xmm0, 80(%rdi)
	ucomisd	.LC1(%rip), %xmm6
	movsd	%xmm6, 24(%rdi)
	jb	.L1879
	movl	$1, 120(%rdi)
	movq	$0, 24(%rdi)
	jmp	.L1879
	.p2align 4,,10
	.p2align 3
.L700:
	movsd	.LC1(%rip), %xmm8
	addsd	592(%rdi), %xmm7
	movl	%edx, %edx
	movapd	%xmm8, %xmm5
	subsd	env_curve(,%rdx,8), %xmm5
	ucomisd	%xmm8, %xmm7
	movsd	%xmm7, 504(%rdi)
	movsd	%xmm5, 560(%rdi)
	jb	.L696
.L5515:
	movl	$4, 600(%rdi)
	jmp	.L696
	.p2align 4,,10
	.p2align 3
.L1880:
	movsd	.LC1(%rip), %xmm2
	movl	%edx, %edx
	movsd	104(%rdi), %xmm4
	movapd	%xmm2, %xmm0
	subsd	env_curve(,%rdx,8), %xmm0
	ucomisd	%xmm0, %xmm4
	movsd	%xmm0, 80(%rdi)
	jbe	.L5118
	movl	$2, 120(%rdi)
	jmp	.L1879
	.p2align 4,,10
	.p2align 3
.L1243:
	movsd	.LC1(%rip), %xmm8
	movl	%edx, %edx
	movsd	584(%rdi), %xmm11
	movapd	%xmm8, %xmm5
	subsd	env_curve(,%rdx,8), %xmm5
	ucomisd	%xmm5, %xmm11
	movsd	%xmm5, 560(%rdi)
	jbe	.L4922
	movl	$2, 600(%rdi)
	jmp	.L1242
	.p2align 4,,10
	.p2align 3
.L697:
	movsd	.LC1(%rip), %xmm8
	movl	%edx, %edx
	movsd	584(%rdi), %xmm11
	movapd	%xmm8, %xmm5
	subsd	env_curve(,%rdx,8), %xmm5
	ucomisd	%xmm5, %xmm11
	movsd	%xmm5, 560(%rdi)
	jbe	.L4754
	movl	$2, 600(%rdi)
	jmp	.L696
	.p2align 4,,10
	.p2align 3
.L2658:
	movsd	.LC1(%rip), %xmm2
	movl	%edx, %edx
	movsd	104(%rdi), %xmm8
	movapd	%xmm2, %xmm0
	subsd	env_curve(,%rdx,8), %xmm0
	ucomisd	%xmm0, %xmm8
	movsd	%xmm0, 80(%rdi)
	jbe	.L5358
	movl	$2, 120(%rdi)
	jmp	.L2657
	.p2align 4,,10
	.p2align 3
.L1246:
	movsd	.LC1(%rip), %xmm8
	addsd	592(%rdi), %xmm7
	movl	%edx, %edx
	movapd	%xmm8, %xmm5
	subsd	env_curve(,%rdx,8), %xmm5
	ucomisd	%xmm8, %xmm7
	movsd	%xmm7, 504(%rdi)
	movsd	%xmm5, 560(%rdi)
	jb	.L1242
.L5557:
	movl	$4, 600(%rdi)
	jmp	.L1242
	.p2align 4,,10
	.p2align 3
.L1883:
	movsd	.LC1(%rip), %xmm2
	addsd	112(%rdi), %xmm6
	movl	%edx, %edx
	movapd	%xmm2, %xmm0
	subsd	env_curve(,%rdx,8), %xmm0
	ucomisd	%xmm2, %xmm6
	movsd	%xmm6, 24(%rdi)
	movsd	%xmm0, 80(%rdi)
	jb	.L1879
.L5606:
	movl	$4, 120(%rdi)
	jmp	.L1879
	.p2align 4,,10
	.p2align 3
.L2661:
	movsd	.LC1(%rip), %xmm2
	addsd	112(%rdi), %xmm6
	movl	%edx, %edx
	movapd	%xmm2, %xmm0
	subsd	env_curve(,%rdx,8), %xmm0
	ucomisd	%xmm2, %xmm6
	movsd	%xmm6, 24(%rdi)
	movsd	%xmm0, 80(%rdi)
	jb	.L2657
.L5666:
	movl	$4, 120(%rdi)
	jmp	.L2657
	.p2align 4,,10
	.p2align 3
.L5070:
	addsd	416(%rdi), %xmm5
	ucomisd	%xmm2, %xmm5
	movsd	%xmm5, 344(%rdi)
	jnb	.L5594
	jmp	.L1723
	.p2align 4,,10
	.p2align 3
.L4926:
	addsd	416(%rdi), %xmm7
	ucomisd	%xmm2, %xmm7
	movsd	%xmm7, 344(%rdi)
	jnb	.L5558
	jmp	.L1255
.L4714:
	addsd	256(%rdi), %xmm3
	ucomisd	%xmm4, %xmm3
	movsd	%xmm3, 184(%rdi)
	jnb	.L5505
.L4716:
	xorpd	%xmm4, %xmm4
	jmp	.L566
.L4738:
	addsd	256(%rdi), %xmm3
	ucomisd	%xmm4, %xmm3
	movsd	%xmm3, 184(%rdi)
	jnb	.L5511
.L4740:
	xorpd	%xmm4, %xmm4
	jmp	.L644
.L4762:
	addsd	416(%rdi), %xmm3
	ucomisd	%xmm4, %xmm3
	movsd	%xmm3, 344(%rdi)
	jnb	.L5517
.L4764:
	xorpd	%xmm4, %xmm4
	jmp	.L722
.L4786:
	addsd	416(%rdi), %xmm3
	ucomisd	%xmm4, %xmm3
	movsd	%xmm3, 344(%rdi)
	jnb	.L5523
.L4788:
	xorpd	%xmm4, %xmm4
	jmp	.L800
.L5050:
	addsd	256(%rdi), %xmm3
	ucomisd	%xmm4, %xmm3
	movsd	%xmm3, 184(%rdi)
	jnb	.L5589
.L5052:
	xorpd	%xmm4, %xmm4
	jmp	.L1658
.L5074:
	addsd	256(%rdi), %xmm3
	ucomisd	%xmm4, %xmm3
	movsd	%xmm3, 184(%rdi)
	jnb	.L5595
.L5076:
	xorpd	%xmm4, %xmm4
	jmp	.L1736
.L5002:
	addsd	256(%rdi), %xmm3
	ucomisd	%xmm4, %xmm3
	movsd	%xmm3, 184(%rdi)
	jnb	.L5577
.L5004:
	xorpd	%xmm4, %xmm4
	jmp	.L1502
.L5026:
	addsd	256(%rdi), %xmm3
	ucomisd	%xmm4, %xmm3
	movsd	%xmm3, 184(%rdi)
	jnb	.L5583
.L5028:
	xorpd	%xmm4, %xmm4
	jmp	.L1580
.L5098:
	addsd	256(%rdi), %xmm3
	ucomisd	%xmm4, %xmm3
	movsd	%xmm3, 184(%rdi)
	jnb	.L5601
.L5100:
	xorpd	%xmm4, %xmm4
	jmp	.L1814
.L5122:
	addsd	256(%rdi), %xmm3
	ucomisd	%xmm4, %xmm3
	movsd	%xmm3, 184(%rdi)
	jnb	.L5607
.L5124:
	xorpd	%xmm4, %xmm4
	jmp	.L1892
.L5146:
	addsd	896(%rdi), %xmm3
	ucomisd	%xmm4, %xmm3
	movsd	%xmm3, 824(%rdi)
	jnb	.L5613
.L5148:
	xorpd	%xmm4, %xmm4
	jmp	.L1968
.L4810:
	addsd	256(%rdi), %xmm3
	ucomisd	%xmm4, %xmm3
	movsd	%xmm3, 184(%rdi)
	jnb	.L5529
.L4812:
	xorpd	%xmm4, %xmm4
	jmp	.L878
.L4834:
	addsd	256(%rdi), %xmm3
	ucomisd	%xmm4, %xmm3
	movsd	%xmm3, 184(%rdi)
	jnb	.L5535
.L4836:
	xorpd	%xmm4, %xmm4
	jmp	.L956
.L4858:
	addsd	256(%rdi), %xmm3
	ucomisd	%xmm4, %xmm3
	movsd	%xmm3, 184(%rdi)
	jnb	.L5541
.L4860:
	xorpd	%xmm4, %xmm4
	jmp	.L1034
.L4882:
	addsd	256(%rdi), %xmm3
	ucomisd	%xmm4, %xmm3
	movsd	%xmm3, 184(%rdi)
	jnb	.L5547
.L4884:
	xorpd	%xmm4, %xmm4
	jmp	.L1112
.L5482:
	addsd	896(%rdi), %xmm0
	ucomisd	%xmm4, %xmm0
	movsd	%xmm0, 824(%rdi)
	jnb	.L5697
.L5484:
	xorpd	%xmm4, %xmm4
	jmp	.L3060
.L4954:
	addsd	416(%rdi), %xmm3
	ucomisd	%xmm4, %xmm3
	movsd	%xmm3, 344(%rdi)
	jnb	.L5565
.L4956:
	xorpd	%xmm4, %xmm4
	jmp	.L1346
.L4978:
	addsd	256(%rdi), %xmm3
	ucomisd	%xmm4, %xmm3
	movsd	%xmm3, 184(%rdi)
	jnb	.L5571
.L4980:
	xorpd	%xmm4, %xmm4
	jmp	.L1424
.L4930:
	addsd	416(%rdi), %xmm3
	ucomisd	%xmm4, %xmm3
	movsd	%xmm3, 344(%rdi)
	jnb	.L5559
.L4932:
	xorpd	%xmm4, %xmm4
	jmp	.L1268
.L4906:
	addsd	256(%rdi), %xmm3
	ucomisd	%xmm4, %xmm3
	movsd	%xmm3, 184(%rdi)
	jnb	.L5553
.L4908:
	xorpd	%xmm4, %xmm4
	jmp	.L1190
.L5458:
	addsd	896(%rdi), %xmm4
	ucomisd	%xmm10, %xmm4
	movsd	%xmm4, 824(%rdi)
	jnb	.L5691
.L5460:
	xorpd	%xmm4, %xmm4
	jmp	.L2982
.L5338:
	addsd	896(%rdi), %xmm4
	ucomisd	%xmm10, %xmm4
	movsd	%xmm4, 824(%rdi)
	jnb	.L5661
.L5340:
	xorpd	%xmm4, %xmm4
	jmp	.L2592
.L5362:
	addsd	896(%rdi), %xmm3
	ucomisd	%xmm4, %xmm3
	movsd	%xmm3, 824(%rdi)
	jnb	.L5667
.L5364:
	xorpd	%xmm4, %xmm4
	jmp	.L2670
.L5434:
	addsd	896(%rdi), %xmm3
	ucomisd	%xmm4, %xmm3
	movsd	%xmm3, 824(%rdi)
	jnb	.L5685
.L5436:
	xorpd	%xmm4, %xmm4
	jmp	.L2904
.L5386:
	addsd	896(%rdi), %xmm3
	ucomisd	%xmm4, %xmm3
	movsd	%xmm3, 824(%rdi)
	jnb	.L5673
.L5388:
	xorpd	%xmm4, %xmm4
	jmp	.L2748
.L5410:
	addsd	896(%rdi), %xmm3
	ucomisd	%xmm4, %xmm3
	movsd	%xmm3, 824(%rdi)
	jnb	.L5679
.L5412:
	xorpd	%xmm4, %xmm4
	jmp	.L2826
.L5170:
	addsd	896(%rdi), %xmm4
	ucomisd	%xmm10, %xmm4
	movsd	%xmm4, 824(%rdi)
	jnb	.L5619
.L5172:
	xorpd	%xmm4, %xmm4
	jmp	.L2046
.L5194:
	addsd	896(%rdi), %xmm3
	ucomisd	%xmm4, %xmm3
	movsd	%xmm3, 824(%rdi)
	jnb	.L5625
.L5196:
	xorpd	%xmm4, %xmm4
	jmp	.L2124
.L5218:
	addsd	896(%rdi), %xmm3
	ucomisd	%xmm4, %xmm3
	movsd	%xmm3, 824(%rdi)
	jnb	.L5631
.L5220:
	xorpd	%xmm4, %xmm4
	jmp	.L2202
.L5242:
	addsd	896(%rdi), %xmm3
	ucomisd	%xmm4, %xmm3
	movsd	%xmm3, 824(%rdi)
	jnb	.L5637
.L5244:
	xorpd	%xmm4, %xmm4
	jmp	.L2280
.L5266:
	addsd	896(%rdi), %xmm3
	ucomisd	%xmm4, %xmm3
	movsd	%xmm3, 824(%rdi)
	jnb	.L5643
.L5268:
	xorpd	%xmm4, %xmm4
	jmp	.L2358
.L5290:
	addsd	896(%rdi), %xmm3
	ucomisd	%xmm4, %xmm3
	movsd	%xmm3, 824(%rdi)
	jnb	.L5649
.L5292:
	xorpd	%xmm4, %xmm4
	jmp	.L2436
.L5314:
	addsd	896(%rdi), %xmm3
	ucomisd	%xmm4, %xmm3
	movsd	%xmm3, 824(%rdi)
	jnb	.L5655
.L5316:
	xorpd	%xmm4, %xmm4
	jmp	.L2514
.L5990:
	testl	%eax, %eax
	jne	.L4740
	addsd	248(%rdi), %xmm3
	movl	%edx, %edx
	movsd	env_curve(,%rdx,8), %xmm10
	movsd	%xmm10, 240(%rdi)
	ucomisd	.LC1(%rip), %xmm3
	movsd	%xmm3, 184(%rdi)
	jb	.L4740
	movl	$1, 280(%rdi)
	movq	$0, 184(%rdi)
	xorpd	%xmm4, %xmm4
	jmp	.L644
.L5989:
	testl	%eax, %eax
	jne	.L774
	addsd	728(%rdi), %xmm0
	movl	%edx, %edx
	movsd	env_curve(,%rdx,8), %xmm5
	movsd	%xmm5, 720(%rdi)
	ucomisd	.LC1(%rip), %xmm0
	movsd	%xmm0, 664(%rdi)
	jb	.L774
	movl	$1, 760(%rdi)
	movq	$0, 664(%rdi)
	jmp	.L774
.L5988:
	testl	%eax, %eax
	jne	.L761
	addsd	888(%rdi), %xmm5
	movl	%edx, %edx
	movsd	env_curve(,%rdx,8), %xmm0
	movsd	%xmm0, 880(%rdi)
	ucomisd	.LC1(%rip), %xmm5
	movsd	%xmm5, 824(%rdi)
	jb	.L761
	movl	$1, 920(%rdi)
	movq	$0, 824(%rdi)
	jmp	.L761
.L5993:
	testl	%eax, %eax
	jne	.L683
	addsd	728(%rdi), %xmm8
	movl	%edx, %edx
	movsd	env_curve(,%rdx,8), %xmm0
	movsd	%xmm0, 720(%rdi)
	ucomisd	.LC1(%rip), %xmm8
	movsd	%xmm8, 664(%rdi)
	jb	.L683
	movl	$1, 760(%rdi)
	movq	$0, 664(%rdi)
	jmp	.L683
.L5992:
	testl	%eax, %eax
	jne	.L670
	addsd	888(%rdi), %xmm0
	movl	%edx, %edx
	movsd	env_curve(,%rdx,8), %xmm5
	movsd	%xmm5, 880(%rdi)
	ucomisd	.LC1(%rip), %xmm0
	movsd	%xmm0, 824(%rdi)
	jb	.L670
	movl	$1, 920(%rdi)
	movq	$0, 824(%rdi)
	jmp	.L670
.L5991:
	testl	%eax, %eax
	jne	.L657
	addsd	88(%rdi), %xmm0
	movl	%edx, %edx
	movsd	env_curve(,%rdx,8), %xmm10
	movsd	%xmm10, 80(%rdi)
	ucomisd	.LC1(%rip), %xmm0
	movsd	%xmm0, 24(%rdi)
	jb	.L657
	movl	$1, 120(%rdi)
	movq	$0, 24(%rdi)
	jmp	.L657
.L5950:
	testl	%eax, %eax
	jne	.L1320
	addsd	728(%rdi), %xmm8
	movl	%edx, %edx
	movsd	env_curve(,%rdx,8), %xmm5
	movsd	%xmm5, 720(%rdi)
	ucomisd	.LC1(%rip), %xmm8
	movsd	%xmm8, 664(%rdi)
	jb	.L1320
	movl	$1, 760(%rdi)
	movq	$0, 664(%rdi)
	jmp	.L1320
.L5995:
	testl	%eax, %eax
	jne	.L4716
	addsd	248(%rdi), %xmm3
	movl	%edx, %edx
	movsd	env_curve(,%rdx,8), %xmm11
	movsd	%xmm11, 240(%rdi)
	ucomisd	.LC1(%rip), %xmm3
	movsd	%xmm3, 184(%rdi)
	jb	.L4716
	movl	$1, 280(%rdi)
	movq	$0, 184(%rdi)
	xorpd	%xmm4, %xmm4
	jmp	.L566
.L5984:
	testl	%eax, %eax
	jne	.L865
	addsd	568(%rdi), %xmm6
	movl	%edx, %edx
	movsd	env_curve(,%rdx,8), %xmm1
	movsd	%xmm1, 560(%rdi)
	ucomisd	.LC1(%rip), %xmm6
	movsd	%xmm6, 504(%rdi)
	jb	.L865
	movl	$1, 600(%rdi)
	movq	$0, 504(%rdi)
	jmp	.L865
.L5998:
	testl	%eax, %eax
	jne	.L605
	addsd	728(%rdi), %xmm5
	movl	%edx, %edx
	movsd	env_curve(,%rdx,8), %xmm0
	movsd	%xmm0, 720(%rdi)
	ucomisd	.LC1(%rip), %xmm5
	movsd	%xmm5, 664(%rdi)
	jb	.L605
	movl	$1, 760(%rdi)
	movq	$0, 664(%rdi)
	jmp	.L605
.L5997:
	testl	%eax, %eax
	jne	.L592
	addsd	888(%rdi), %xmm5
	movl	%edx, %edx
	movsd	env_curve(,%rdx,8), %xmm0
	movsd	%xmm0, 880(%rdi)
	ucomisd	.LC1(%rip), %xmm5
	movsd	%xmm5, 824(%rdi)
	jb	.L592
	movl	$1, 920(%rdi)
	movq	$0, 824(%rdi)
	jmp	.L592
.L5996:
	testl	%eax, %eax
	jne	.L579
	addsd	88(%rdi), %xmm0
	movl	%edx, %edx
	movsd	env_curve(,%rdx,8), %xmm10
	movsd	%xmm10, 80(%rdi)
	ucomisd	.LC1(%rip), %xmm0
	movsd	%xmm0, 24(%rdi)
	jb	.L579
	movl	$1, 120(%rdi)
	movq	$0, 24(%rdi)
	jmp	.L579
.L5867:
	testl	%eax, %eax
	jne	.L2371
	addsd	728(%rdi), %xmm10
	movl	%edx, %edx
	movsd	env_curve(,%rdx,8), %xmm8
	movsd	%xmm8, 720(%rdi)
	ucomisd	.LC1(%rip), %xmm10
	movsd	%xmm10, 664(%rdi)
	jb	.L2371
	movl	$1, 760(%rdi)
	movq	$0, 664(%rdi)
	jmp	.L2371
.L5856:
	testl	%eax, %eax
	jne	.L2527
	addsd	728(%rdi), %xmm10
	movl	%edx, %edx
	movsd	env_curve(,%rdx,8), %xmm8
	movsd	%xmm8, 720(%rdi)
	ucomisd	.LC1(%rip), %xmm10
	movsd	%xmm10, 664(%rdi)
	jb	.L2527
	movl	$1, 760(%rdi)
	movq	$0, 664(%rdi)
	jmp	.L2527
.L5857:
	testl	%eax, %eax
	jne	.L2540
	addsd	568(%rdi), %xmm10
	movl	%edx, %edx
	movsd	env_curve(,%rdx,8), %xmm7
	movsd	%xmm7, 560(%rdi)
	ucomisd	.LC1(%rip), %xmm10
	movsd	%xmm10, 504(%rdi)
	jb	.L2540
	movl	$1, 600(%rdi)
	movq	$0, 504(%rdi)
	jmp	.L2540
.L5860:
	testl	%eax, %eax
	jne	.L5292
	addsd	888(%rdi), %xmm3
	movl	%edx, %edx
	movsd	env_curve(,%rdx,8), %xmm10
	movsd	%xmm10, 880(%rdi)
	ucomisd	.LC1(%rip), %xmm3
	movsd	%xmm3, 824(%rdi)
	jb	.L5292
	movl	$1, 920(%rdi)
	movq	$0, 824(%rdi)
	xorpd	%xmm4, %xmm4
	jmp	.L2436
.L5859:
	testl	%eax, %eax
	jne	.L2566
	addsd	248(%rdi), %xmm9
	movl	%edx, %edx
	movsd	env_curve(,%rdx,8), %xmm6
	movsd	%xmm6, 240(%rdi)
	ucomisd	.LC1(%rip), %xmm9
	movsd	%xmm9, 184(%rdi)
	jb	.L2566
	movl	$1, 280(%rdi)
	movq	$0, 184(%rdi)
	jmp	.L2566
.L5858:
	testl	%eax, %eax
	jne	.L2553
	addsd	408(%rdi), %xmm9
	movl	%edx, %edx
	movsd	env_curve(,%rdx,8), %xmm8
	movsd	%xmm8, 400(%rdi)
	ucomisd	.LC1(%rip), %xmm9
	movsd	%xmm9, 344(%rdi)
	jb	.L2553
	movl	$1, 440(%rdi)
	movq	$0, 344(%rdi)
	jmp	.L2553
.L5852:
	testl	%eax, %eax
	jne	.L2631
	addsd	408(%rdi), %xmm9
	movl	%edx, %edx
	movsd	env_curve(,%rdx,8), %xmm8
	movsd	%xmm8, 400(%rdi)
	ucomisd	.LC1(%rip), %xmm9
	movsd	%xmm9, 344(%rdi)
	jb	.L2631
	movl	$1, 440(%rdi)
	movq	$0, 344(%rdi)
	jmp	.L2631
.L5851:
	testl	%eax, %eax
	jne	.L2618
	addsd	568(%rdi), %xmm3
	movl	%edx, %edx
	movsd	env_curve(,%rdx,8), %xmm7
	movsd	%xmm7, 560(%rdi)
	ucomisd	.LC1(%rip), %xmm3
	movsd	%xmm3, 504(%rdi)
	jb	.L2618
	movl	$1, 600(%rdi)
	movq	$0, 504(%rdi)
	jmp	.L2618
.L5850:
	testl	%eax, %eax
	jne	.L2605
	addsd	728(%rdi), %xmm10
	movl	%edx, %edx
	movsd	env_curve(,%rdx,8), %xmm8
	movsd	%xmm8, 720(%rdi)
	ucomisd	.LC1(%rip), %xmm10
	movsd	%xmm10, 664(%rdi)
	jb	.L2605
	movl	$1, 760(%rdi)
	movq	$0, 664(%rdi)
	jmp	.L2605
.L5855:
	testl	%eax, %eax
	jne	.L5316
	addsd	888(%rdi), %xmm3
	movl	%edx, %edx
	movsd	env_curve(,%rdx,8), %xmm10
	movsd	%xmm10, 880(%rdi)
	ucomisd	.LC1(%rip), %xmm3
	movsd	%xmm3, 824(%rdi)
	jb	.L5316
	movl	$1, 920(%rdi)
	movq	$0, 824(%rdi)
	xorpd	%xmm4, %xmm4
	jmp	.L2514
.L5853:
	testl	%eax, %eax
	jne	.L2644
	addsd	248(%rdi), %xmm8
	movl	%edx, %edx
	movsd	env_curve(,%rdx,8), %xmm6
	movsd	%xmm6, 240(%rdi)
	ucomisd	.LC1(%rip), %xmm8
	movsd	%xmm8, 184(%rdi)
	jb	.L2644
	movl	$1, 280(%rdi)
	movq	$0, 184(%rdi)
	jmp	.L2644
.L5892:
	testl	%eax, %eax
	jne	.L2072
	addsd	568(%rdi), %xmm3
	movl	%edx, %edx
	movsd	env_curve(,%rdx,8), %xmm7
	movsd	%xmm7, 560(%rdi)
	ucomisd	.LC1(%rip), %xmm3
	movsd	%xmm3, 504(%rdi)
	jb	.L2072
	movl	$1, 600(%rdi)
	movq	$0, 504(%rdi)
	jmp	.L2072
.L5868:
	testl	%eax, %eax
	jne	.L2384
	addsd	568(%rdi), %xmm3
	movl	%edx, %edx
	movsd	env_curve(,%rdx,8), %xmm7
	movsd	%xmm7, 560(%rdi)
	ucomisd	.LC1(%rip), %xmm3
	movsd	%xmm3, 504(%rdi)
	jb	.L2384
	movl	$1, 600(%rdi)
	movq	$0, 504(%rdi)
	jmp	.L2384
.L5871:
	testl	%eax, %eax
	jne	.L2423
	addsd	88(%rdi), %xmm9
	movl	%edx, %edx
	movsd	env_curve(,%rdx,8), %xmm0
	movsd	%xmm0, 80(%rdi)
	ucomisd	.LC1(%rip), %xmm9
	movsd	%xmm9, 24(%rdi)
	jb	.L2423
	movl	$1, 120(%rdi)
	movq	$0, 24(%rdi)
	jmp	.L2423
.L5870:
	testl	%eax, %eax
	jne	.L2410
	addsd	248(%rdi), %xmm9
	movl	%edx, %edx
	movsd	env_curve(,%rdx,8), %xmm6
	movsd	%xmm6, 240(%rdi)
	ucomisd	.LC1(%rip), %xmm9
	movsd	%xmm9, 184(%rdi)
	jb	.L2410
	movl	$1, 280(%rdi)
	movq	$0, 184(%rdi)
	jmp	.L2410
.L5869:
	testl	%eax, %eax
	jne	.L2397
	addsd	408(%rdi), %xmm9
	movl	%edx, %edx
	movsd	env_curve(,%rdx,8), %xmm3
	movsd	%xmm3, 400(%rdi)
	ucomisd	.LC1(%rip), %xmm9
	movsd	%xmm9, 344(%rdi)
	jb	.L2397
	movl	$1, 440(%rdi)
	movq	$0, 344(%rdi)
	jmp	.L2397
.L5866:
	testl	%eax, %eax
	jne	.L5268
	addsd	888(%rdi), %xmm3
	movl	%edx, %edx
	movsd	env_curve(,%rdx,8), %xmm10
	movsd	%xmm10, 880(%rdi)
	ucomisd	.LC1(%rip), %xmm3
	movsd	%xmm3, 824(%rdi)
	jb	.L5268
	movl	$1, 920(%rdi)
	movq	$0, 824(%rdi)
	xorpd	%xmm4, %xmm4
	jmp	.L2358
.L5865:
	testl	%eax, %eax
	jne	.L2501
	addsd	88(%rdi), %xmm9
	movl	%edx, %edx
	movsd	env_curve(,%rdx,8), %xmm0
	movsd	%xmm0, 80(%rdi)
	ucomisd	.LC1(%rip), %xmm9
	movsd	%xmm9, 24(%rdi)
	jb	.L2501
	movl	$1, 120(%rdi)
	movq	$0, 24(%rdi)
	jmp	.L2501
.L5864:
	testl	%eax, %eax
	jne	.L2488
	addsd	248(%rdi), %xmm9
	movl	%edx, %edx
	movsd	env_curve(,%rdx,8), %xmm6
	movsd	%xmm6, 240(%rdi)
	ucomisd	.LC1(%rip), %xmm9
	movsd	%xmm9, 184(%rdi)
	jb	.L2488
	movl	$1, 280(%rdi)
	movq	$0, 184(%rdi)
	jmp	.L2488
.L5863:
	testl	%eax, %eax
	jne	.L2475
	addsd	408(%rdi), %xmm9
	movl	%edx, %edx
	movsd	env_curve(,%rdx,8), %xmm7
	movsd	%xmm7, 400(%rdi)
	ucomisd	.LC1(%rip), %xmm9
	movsd	%xmm9, 344(%rdi)
	jb	.L2475
	movl	$1, 440(%rdi)
	movq	$0, 344(%rdi)
	jmp	.L2475
.L5862:
	testl	%eax, %eax
	jne	.L2462
	addsd	568(%rdi), %xmm7
	movl	%edx, %edx
	movsd	env_curve(,%rdx,8), %xmm3
	movsd	%xmm3, 560(%rdi)
	ucomisd	.LC1(%rip), %xmm7
	movsd	%xmm7, 504(%rdi)
	jb	.L2462
	movl	$1, 600(%rdi)
	movq	$0, 504(%rdi)
	jmp	.L2462
.L5861:
	testl	%eax, %eax
	jne	.L2449
	addsd	728(%rdi), %xmm10
	movl	%edx, %edx
	movsd	env_curve(,%rdx,8), %xmm8
	movsd	%xmm8, 720(%rdi)
	ucomisd	.LC1(%rip), %xmm10
	movsd	%xmm10, 664(%rdi)
	jb	.L2449
	movl	$1, 760(%rdi)
	movq	$0, 664(%rdi)
	jmp	.L2449
.L5872:
	testl	%eax, %eax
	jne	.L5244
	addsd	888(%rdi), %xmm3
	movl	%edx, %edx
	movsd	env_curve(,%rdx,8), %xmm10
	movsd	%xmm10, 880(%rdi)
	ucomisd	.LC1(%rip), %xmm3
	movsd	%xmm3, 824(%rdi)
	jb	.L5244
	movl	$1, 920(%rdi)
	movq	$0, 824(%rdi)
	xorpd	%xmm4, %xmm4
	jmp	.L2280
.L5873:
	testl	%eax, %eax
	jne	.L2293
	addsd	728(%rdi), %xmm10
	movl	%edx, %edx
	movsd	env_curve(,%rdx,8), %xmm8
	movsd	%xmm8, 720(%rdi)
	ucomisd	.LC1(%rip), %xmm10
	movsd	%xmm10, 664(%rdi)
	jb	.L2293
	movl	$1, 760(%rdi)
	movq	$0, 664(%rdi)
	jmp	.L2293
.L5876:
	testl	%eax, %eax
	jne	.L2332
	addsd	248(%rdi), %xmm10
	movl	%edx, %edx
	movsd	env_curve(,%rdx,8), %xmm6
	movsd	%xmm6, 240(%rdi)
	ucomisd	.LC1(%rip), %xmm10
	movsd	%xmm10, 184(%rdi)
	jb	.L2332
	movl	$1, 280(%rdi)
	movq	$0, 184(%rdi)
	jmp	.L2332
.L5875:
	testl	%eax, %eax
	jne	.L2319
	addsd	408(%rdi), %xmm10
	movl	%edx, %edx
	movsd	env_curve(,%rdx,8), %xmm9
	movsd	%xmm9, 400(%rdi)
	ucomisd	.LC1(%rip), %xmm10
	movsd	%xmm10, 344(%rdi)
	jb	.L2319
	movl	$1, 440(%rdi)
	movq	$0, 344(%rdi)
	jmp	.L2319
.L5874:
	testl	%eax, %eax
	jne	.L2306
	addsd	568(%rdi), %xmm10
	movl	%edx, %edx
	movsd	env_curve(,%rdx,8), %xmm7
	movsd	%xmm7, 560(%rdi)
	ucomisd	.LC1(%rip), %xmm10
	movsd	%xmm10, 504(%rdi)
	jb	.L2306
	movl	$1, 600(%rdi)
	movq	$0, 504(%rdi)
	jmp	.L2306
.L5891:
	testl	%eax, %eax
	jne	.L2059
	addsd	728(%rdi), %xmm10
	movl	%edx, %edx
	movsd	env_curve(,%rdx,8), %xmm8
	movsd	%xmm8, 720(%rdi)
	ucomisd	.LC1(%rip), %xmm10
	movsd	%xmm10, 664(%rdi)
	jb	.L2059
	movl	$1, 760(%rdi)
	movq	$0, 664(%rdi)
	jmp	.L2059
.L5879:
	testl	%eax, %eax
	jne	.L2215
	addsd	728(%rdi), %xmm10
	movl	%edx, %edx
	movsd	env_curve(,%rdx,8), %xmm8
	movsd	%xmm8, 720(%rdi)
	ucomisd	.LC1(%rip), %xmm10
	movsd	%xmm10, 664(%rdi)
	jb	.L2215
	movl	$1, 760(%rdi)
	movq	$0, 664(%rdi)
	jmp	.L2215
.L5878:
	testl	%eax, %eax
	jne	.L5220
	addsd	888(%rdi), %xmm3
	movl	%edx, %edx
	movsd	env_curve(,%rdx,8), %xmm10
	movsd	%xmm10, 880(%rdi)
	ucomisd	.LC1(%rip), %xmm3
	movsd	%xmm3, 824(%rdi)
	jb	.L5220
	movl	$1, 920(%rdi)
	movq	$0, 824(%rdi)
	xorpd	%xmm4, %xmm4
	jmp	.L2202
.L5877:
	testl	%eax, %eax
	jne	.L2345
	addsd	88(%rdi), %xmm6
	movl	%edx, %edx
	movsd	env_curve(,%rdx,8), %xmm0
	movsd	%xmm0, 80(%rdi)
	ucomisd	.LC1(%rip), %xmm6
	movsd	%xmm6, 24(%rdi)
	jb	.L2345
	movl	$1, 120(%rdi)
	movq	$0, 24(%rdi)
	jmp	.L2345
.L5881:
	testl	%eax, %eax
	jne	.L2241
	addsd	408(%rdi), %xmm10
	movl	%edx, %edx
	movsd	env_curve(,%rdx,8), %xmm9
	movsd	%xmm9, 400(%rdi)
	ucomisd	.LC1(%rip), %xmm10
	movsd	%xmm10, 344(%rdi)
	jb	.L2241
	movl	$1, 440(%rdi)
	movq	$0, 344(%rdi)
	jmp	.L2241
.L5880:
	testl	%eax, %eax
	jne	.L2228
	addsd	568(%rdi), %xmm10
	movl	%edx, %edx
	movsd	env_curve(,%rdx,8), %xmm7
	movsd	%xmm7, 560(%rdi)
	ucomisd	.LC1(%rip), %xmm10
	movsd	%xmm10, 504(%rdi)
	jb	.L2228
	movl	$1, 600(%rdi)
	movq	$0, 504(%rdi)
	jmp	.L2228
.L5884:
	testl	%eax, %eax
	jne	.L5196
	addsd	888(%rdi), %xmm3
	movl	%edx, %edx
	movsd	env_curve(,%rdx,8), %xmm10
	movsd	%xmm10, 880(%rdi)
	ucomisd	.LC1(%rip), %xmm3
	movsd	%xmm3, 824(%rdi)
	jb	.L5196
	movl	$1, 920(%rdi)
	movq	$0, 824(%rdi)
	xorpd	%xmm4, %xmm4
	jmp	.L2124
.L5883:
	testl	%eax, %eax
	jne	.L2267
	addsd	88(%rdi), %xmm10
	movl	%edx, %edx
	movsd	env_curve(,%rdx,8), %xmm0
	movsd	%xmm0, 80(%rdi)
	ucomisd	.LC1(%rip), %xmm10
	movsd	%xmm10, 24(%rdi)
	jb	.L2267
	movl	$1, 120(%rdi)
	movq	$0, 24(%rdi)
	jmp	.L2267
.L5882:
	testl	%eax, %eax
	jne	.L2254
	addsd	248(%rdi), %xmm10
	movl	%edx, %edx
	movsd	env_curve(,%rdx,8), %xmm6
	movsd	%xmm6, 240(%rdi)
	ucomisd	.LC1(%rip), %xmm10
	movsd	%xmm10, 184(%rdi)
	jb	.L2254
	movl	$1, 280(%rdi)
	movq	$0, 184(%rdi)
	jmp	.L2254
.L5887:
	testl	%eax, %eax
	jne	.L2163
	addsd	408(%rdi), %xmm10
	movl	%edx, %edx
	movsd	env_curve(,%rdx,8), %xmm9
	movsd	%xmm9, 400(%rdi)
	ucomisd	.LC1(%rip), %xmm10
	movsd	%xmm10, 344(%rdi)
	jb	.L2163
	movl	$1, 440(%rdi)
	movq	$0, 344(%rdi)
	jmp	.L2163
.L5886:
	testl	%eax, %eax
	jne	.L2150
	addsd	568(%rdi), %xmm11
	movl	%edx, %edx
	movsd	env_curve(,%rdx,8), %xmm7
	movsd	%xmm7, 560(%rdi)
	ucomisd	.LC1(%rip), %xmm11
	movsd	%xmm11, 504(%rdi)
	jb	.L2150
	movl	$1, 600(%rdi)
	movq	$0, 504(%rdi)
	jmp	.L2150
.L5885:
	testl	%eax, %eax
	jne	.L2137
	addsd	728(%rdi), %xmm3
	movl	%edx, %edx
	movsd	env_curve(,%rdx,8), %xmm8
	movsd	%xmm8, 720(%rdi)
	ucomisd	.LC1(%rip), %xmm3
	movsd	%xmm3, 664(%rdi)
	jb	.L2137
	movl	$1, 760(%rdi)
	movq	$0, 664(%rdi)
	jmp	.L2137
.L5951:
	testl	%eax, %eax
	jne	.L4908
	addsd	248(%rdi), %xmm3
	movl	%edx, %edx
	movsd	env_curve(,%rdx,8), %xmm10
	movsd	%xmm10, 240(%rdi)
	ucomisd	.LC1(%rip), %xmm3
	movsd	%xmm3, 184(%rdi)
	jb	.L4908
	movl	$1, 280(%rdi)
	movq	$0, 184(%rdi)
	xorpd	%xmm4, %xmm4
	jmp	.L1190
.L5949:
	testl	%eax, %eax
	jne	.L1307
	addsd	888(%rdi), %xmm5
	movl	%edx, %edx
	movsd	env_curve(,%rdx,8), %xmm0
	movsd	%xmm0, 880(%rdi)
	ucomisd	.LC1(%rip), %xmm5
	movsd	%xmm5, 824(%rdi)
	jb	.L1307
	movl	$1, 920(%rdi)
	movq	$0, 824(%rdi)
	jmp	.L1307
.L5890:
	testl	%eax, %eax
	jne	.L5172
	addsd	888(%rdi), %xmm4
	movl	%edx, %edx
	movsd	env_curve(,%rdx,8), %xmm3
	movsd	%xmm3, 880(%rdi)
	ucomisd	.LC1(%rip), %xmm4
	movsd	%xmm4, 824(%rdi)
	jb	.L5172
	movl	$1, 920(%rdi)
	movq	$0, 824(%rdi)
	xorpd	%xmm4, %xmm4
	jmp	.L2046
.L5889:
	testl	%eax, %eax
	jne	.L2189
	addsd	88(%rdi), %xmm9
	movl	%edx, %edx
	movsd	env_curve(,%rdx,8), %xmm0
	movsd	%xmm0, 80(%rdi)
	ucomisd	.LC1(%rip), %xmm9
	movsd	%xmm9, 24(%rdi)
	jb	.L2189
	movl	$1, 120(%rdi)
	movq	$0, 24(%rdi)
	jmp	.L2189
.L5888:
	testl	%eax, %eax
	jne	.L2176
	addsd	248(%rdi), %xmm9
	movl	%edx, %edx
	movsd	env_curve(,%rdx,8), %xmm6
	movsd	%xmm6, 240(%rdi)
	ucomisd	.LC1(%rip), %xmm9
	movsd	%xmm9, 184(%rdi)
	jb	.L2176
	movl	$1, 280(%rdi)
	movq	$0, 184(%rdi)
	jmp	.L2176
.L5832:
	testl	%eax, %eax
	jne	.L2839
	addsd	728(%rdi), %xmm3
	movl	%edx, %edx
	movsd	env_curve(,%rdx,8), %xmm8
	movsd	%xmm8, 720(%rdi)
	ucomisd	.LC1(%rip), %xmm3
	movsd	%xmm3, 664(%rdi)
	jb	.L2839
	movl	$1, 760(%rdi)
	movq	$0, 664(%rdi)
	jmp	.L2839
.L5833:
	testl	%eax, %eax
	jne	.L2852
	addsd	568(%rdi), %xmm8
	movl	%edx, %edx
	movsd	env_curve(,%rdx,8), %xmm7
	movsd	%xmm7, 560(%rdi)
	ucomisd	.LC1(%rip), %xmm8
	movsd	%xmm8, 504(%rdi)
	jb	.L2852
	movl	$1, 600(%rdi)
	movq	$0, 504(%rdi)
	jmp	.L2852
.L5831:
	testl	%eax, %eax
	jne	.L5412
	addsd	888(%rdi), %xmm3
	movl	%edx, %edx
	movsd	env_curve(,%rdx,8), %xmm10
	movsd	%xmm10, 880(%rdi)
	ucomisd	.LC1(%rip), %xmm3
	movsd	%xmm3, 824(%rdi)
	jb	.L5412
	movl	$1, 920(%rdi)
	movq	$0, 824(%rdi)
	xorpd	%xmm4, %xmm4
	jmp	.L2826
.L5829:
	testl	%eax, %eax
	jne	.L2956
	addsd	248(%rdi), %xmm9
	movl	%edx, %edx
	movsd	env_curve(,%rdx,8), %xmm6
	movsd	%xmm6, 240(%rdi)
	ucomisd	.LC1(%rip), %xmm9
	movsd	%xmm9, 184(%rdi)
	jb	.L2956
	movl	$1, 280(%rdi)
	movq	$0, 184(%rdi)
	jmp	.L2956
.L5844:
	testl	%eax, %eax
	jne	.L2683
	addsd	728(%rdi), %xmm3
	movl	%edx, %edx
	movsd	env_curve(,%rdx,8), %xmm8
	movsd	%xmm8, 720(%rdi)
	ucomisd	.LC1(%rip), %xmm3
	movsd	%xmm3, 664(%rdi)
	jb	.L2683
	movl	$1, 760(%rdi)
	movq	$0, 664(%rdi)
	jmp	.L2683
.L5837:
	testl	%eax, %eax
	jne	.L5388
	addsd	888(%rdi), %xmm3
	movl	%edx, %edx
	movsd	env_curve(,%rdx,8), %xmm10
	movsd	%xmm10, 880(%rdi)
	ucomisd	.LC1(%rip), %xmm3
	movsd	%xmm3, 824(%rdi)
	jb	.L5388
	movl	$1, 920(%rdi)
	movq	$0, 824(%rdi)
	xorpd	%xmm4, %xmm4
	jmp	.L2748
.L5839:
	testl	%eax, %eax
	jne	.L2774
	addsd	568(%rdi), %xmm10
	movl	%edx, %edx
	movsd	env_curve(,%rdx,8), %xmm7
	movsd	%xmm7, 560(%rdi)
	ucomisd	.LC1(%rip), %xmm10
	movsd	%xmm10, 504(%rdi)
	jb	.L2774
	movl	$1, 600(%rdi)
	movq	$0, 504(%rdi)
	jmp	.L2774
.L5838:
	testl	%eax, %eax
	jne	.L2761
	addsd	728(%rdi), %xmm10
	movl	%edx, %edx
	movsd	env_curve(,%rdx,8), %xmm8
	movsd	%xmm8, 720(%rdi)
	ucomisd	.LC1(%rip), %xmm10
	movsd	%xmm10, 664(%rdi)
	jb	.L2761
	movl	$1, 760(%rdi)
	movq	$0, 664(%rdi)
	jmp	.L2761
.L5825:
	testl	%eax, %eax
	jne	.L5436
	addsd	888(%rdi), %xmm3
	movl	%edx, %edx
	movsd	env_curve(,%rdx,8), %xmm10
	movsd	%xmm10, 880(%rdi)
	ucomisd	.LC1(%rip), %xmm3
	movsd	%xmm3, 824(%rdi)
	jb	.L5436
	movl	$1, 920(%rdi)
	movq	$0, 824(%rdi)
	xorpd	%xmm4, %xmm4
	jmp	.L2904
.L5842:
	testl	%eax, %eax
	jne	.L2813
	addsd	88(%rdi), %xmm7
	movl	%edx, %edx
	movsd	env_curve(,%rdx,8), %xmm0
	movsd	%xmm0, 80(%rdi)
	ucomisd	.LC1(%rip), %xmm7
	movsd	%xmm7, 24(%rdi)
	jb	.L2813
	movl	$1, 120(%rdi)
	movq	$0, 24(%rdi)
	jmp	.L2813
.L5830:
	testl	%eax, %eax
	jne	.L2969
	addsd	88(%rdi), %xmm9
	movl	%edx, %edx
	movsd	env_curve(,%rdx,8), %xmm0
	movsd	%xmm0, 80(%rdi)
	ucomisd	.LC1(%rip), %xmm9
	movsd	%xmm9, 24(%rdi)
	jb	.L2969
	movl	$1, 120(%rdi)
	movq	$0, 24(%rdi)
	jmp	.L2969
.L5948:
	testl	%eax, %eax
	jne	.L1294
	addsd	88(%rdi), %xmm0
	movl	%edx, %edx
	movsd	env_curve(,%rdx,8), %xmm6
	movsd	%xmm6, 80(%rdi)
	ucomisd	.LC1(%rip), %xmm0
	movsd	%xmm0, 24(%rdi)
	jb	.L1294
	movl	$1, 120(%rdi)
	movq	$0, 24(%rdi)
	jmp	.L1294
.L5843:
	testl	%eax, %eax
	jne	.L5364
	addsd	888(%rdi), %xmm3
	movl	%edx, %edx
	movsd	env_curve(,%rdx,8), %xmm10
	movsd	%xmm10, 880(%rdi)
	ucomisd	.LC1(%rip), %xmm3
	movsd	%xmm3, 824(%rdi)
	jb	.L5364
	movl	$1, 920(%rdi)
	movq	$0, 824(%rdi)
	xorpd	%xmm4, %xmm4
	jmp	.L2670
.L5841:
	testl	%eax, %eax
	jne	.L2800
	addsd	248(%rdi), %xmm7
	movl	%edx, %edx
	movsd	env_curve(,%rdx,8), %xmm6
	movsd	%xmm6, 240(%rdi)
	ucomisd	.LC1(%rip), %xmm7
	movsd	%xmm7, 184(%rdi)
	jb	.L2800
	movl	$1, 280(%rdi)
	movq	$0, 184(%rdi)
	jmp	.L2800
.L5840:
	testl	%eax, %eax
	jne	.L2787
	addsd	408(%rdi), %xmm10
	movl	%edx, %edx
	movsd	env_curve(,%rdx,8), %xmm9
	movsd	%xmm9, 400(%rdi)
	ucomisd	.LC1(%rip), %xmm10
	movsd	%xmm10, 344(%rdi)
	jb	.L2787
	movl	$1, 440(%rdi)
	movq	$0, 344(%rdi)
	jmp	.L2787
.L5849:
	testl	%eax, %eax
	jne	.L5340
	addsd	888(%rdi), %xmm4
	movl	%edx, %edx
	movsd	env_curve(,%rdx,8), %xmm3
	movsd	%xmm3, 880(%rdi)
	ucomisd	.LC1(%rip), %xmm4
	movsd	%xmm4, 824(%rdi)
	jb	.L5340
	movl	$1, 920(%rdi)
	movq	$0, 824(%rdi)
	xorpd	%xmm4, %xmm4
	jmp	.L2592
.L5847:
	testl	%eax, %eax
	jne	.L2722
	addsd	248(%rdi), %xmm8
	movl	%edx, %edx
	movsd	env_curve(,%rdx,8), %xmm6
	movsd	%xmm6, 240(%rdi)
	ucomisd	.LC1(%rip), %xmm8
	movsd	%xmm8, 184(%rdi)
	jb	.L2722
	movl	$1, 280(%rdi)
	movq	$0, 184(%rdi)
	jmp	.L2722
.L5846:
	testl	%eax, %eax
	jne	.L2709
	addsd	408(%rdi), %xmm9
	movl	%edx, %edx
	movsd	env_curve(,%rdx,8), %xmm7
	movsd	%xmm7, 400(%rdi)
	ucomisd	.LC1(%rip), %xmm9
	movsd	%xmm9, 344(%rdi)
	jb	.L2709
	movl	$1, 440(%rdi)
	movq	$0, 344(%rdi)
	jmp	.L2709
.L5845:
	testl	%eax, %eax
	jne	.L2696
	addsd	568(%rdi), %xmm7
	movl	%edx, %edx
	movsd	env_curve(,%rdx,8), %xmm8
	movsd	%xmm8, 560(%rdi)
	ucomisd	.LC1(%rip), %xmm7
	movsd	%xmm7, 504(%rdi)
	jb	.L2696
	movl	$1, 600(%rdi)
	movq	$0, 504(%rdi)
	jmp	.L2696
.L5947:
	testl	%eax, %eax
	jne	.L1281
	addsd	248(%rdi), %xmm6
	movl	%edx, %edx
	movsd	env_curve(,%rdx,8), %xmm10
	movsd	%xmm10, 240(%rdi)
	ucomisd	.LC1(%rip), %xmm6
	movsd	%xmm6, 184(%rdi)
	jb	.L1281
	movl	$1, 280(%rdi)
	movq	$0, 184(%rdi)
	jmp	.L1281
.L5820:
	testl	%eax, %eax
	jne	.L2995
	addsd	728(%rdi), %xmm8
	movl	%edx, %edx
	movsd	env_curve(,%rdx,8), %xmm3
	movsd	%xmm3, 720(%rdi)
	ucomisd	.LC1(%rip), %xmm8
	movsd	%xmm8, 664(%rdi)
	jb	.L2995
	movl	$1, 760(%rdi)
	movq	$0, 664(%rdi)
	jmp	.L2995
.L5819:
	testl	%eax, %eax
	jne	.L5460
	addsd	888(%rdi), %xmm4
	movl	%edx, %edx
	movsd	env_curve(,%rdx,8), %xmm3
	movsd	%xmm3, 880(%rdi)
	ucomisd	.LC1(%rip), %xmm4
	movsd	%xmm4, 824(%rdi)
	jb	.L5460
	movl	$1, 920(%rdi)
	movq	$0, 824(%rdi)
	xorpd	%xmm4, %xmm4
	jmp	.L2982
.L5823:
	testl	%eax, %eax
	jne	.L3034
	addsd	248(%rdi), %xmm9
	movl	%edx, %edx
	movsd	env_curve(,%rdx,8), %xmm6
	movsd	%xmm6, 240(%rdi)
	ucomisd	.LC1(%rip), %xmm9
	movsd	%xmm9, 184(%rdi)
	jb	.L3034
	movl	$1, 280(%rdi)
	movq	$0, 184(%rdi)
	jmp	.L3034
.L5822:
	testl	%eax, %eax
	jne	.L3021
	addsd	408(%rdi), %xmm9
	movl	%edx, %edx
	movsd	env_curve(,%rdx,8), %xmm8
	movsd	%xmm8, 400(%rdi)
	ucomisd	.LC1(%rip), %xmm9
	movsd	%xmm9, 344(%rdi)
	jb	.L3021
	movl	$1, 440(%rdi)
	movq	$0, 344(%rdi)
	jmp	.L3021
.L5821:
	testl	%eax, %eax
	jne	.L3008
	addsd	568(%rdi), %xmm8
	movl	%edx, %edx
	movsd	env_curve(,%rdx,8), %xmm7
	movsd	%xmm7, 560(%rdi)
	ucomisd	.LC1(%rip), %xmm8
	movsd	%xmm8, 504(%rdi)
	jb	.L3008
	movl	$1, 600(%rdi)
	movq	$0, 504(%rdi)
	jmp	.L3008
.L5836:
	testl	%eax, %eax
	jne	.L2891
	addsd	88(%rdi), %xmm7
	movl	%edx, %edx
	movsd	env_curve(,%rdx,8), %xmm0
	movsd	%xmm0, 80(%rdi)
	ucomisd	.LC1(%rip), %xmm7
	movsd	%xmm7, 24(%rdi)
	jb	.L2891
	movl	$1, 120(%rdi)
	movq	$0, 24(%rdi)
	jmp	.L2891
.L5835:
	testl	%eax, %eax
	jne	.L2878
	addsd	248(%rdi), %xmm7
	movl	%edx, %edx
	movsd	env_curve(,%rdx,8), %xmm6
	movsd	%xmm6, 240(%rdi)
	ucomisd	.LC1(%rip), %xmm7
	movsd	%xmm7, 184(%rdi)
	jb	.L2878
	movl	$1, 280(%rdi)
	movq	$0, 184(%rdi)
	jmp	.L2878
.L5834:
	testl	%eax, %eax
	jne	.L2865
	addsd	408(%rdi), %xmm9
	movl	%edx, %edx
	movsd	env_curve(,%rdx,8), %xmm8
	movsd	%xmm8, 400(%rdi)
	ucomisd	.LC1(%rip), %xmm9
	movsd	%xmm9, 344(%rdi)
	jb	.L2865
	movl	$1, 440(%rdi)
	movq	$0, 344(%rdi)
	jmp	.L2865
.L5828:
	testl	%eax, %eax
	jne	.L2943
	addsd	408(%rdi), %xmm9
	movl	%edx, %edx
	movsd	env_curve(,%rdx,8), %xmm8
	movsd	%xmm8, 400(%rdi)
	ucomisd	.LC1(%rip), %xmm9
	movsd	%xmm9, 344(%rdi)
	jb	.L2943
	movl	$1, 440(%rdi)
	movq	$0, 344(%rdi)
	jmp	.L2943
.L5827:
	testl	%eax, %eax
	jne	.L2930
	addsd	568(%rdi), %xmm8
	movl	%edx, %edx
	movsd	env_curve(,%rdx,8), %xmm7
	movsd	%xmm7, 560(%rdi)
	ucomisd	.LC1(%rip), %xmm8
	movsd	%xmm8, 504(%rdi)
	jb	.L2930
	movl	$1, 600(%rdi)
	movq	$0, 504(%rdi)
	jmp	.L2930
.L5826:
	testl	%eax, %eax
	jne	.L2917
	addsd	728(%rdi), %xmm10
	movl	%edx, %edx
	movsd	env_curve(,%rdx,8), %xmm8
	movsd	%xmm8, 720(%rdi)
	ucomisd	.LC1(%rip), %xmm10
	movsd	%xmm10, 664(%rdi)
	jb	.L2917
	movl	$1, 760(%rdi)
	movq	$0, 664(%rdi)
	jmp	.L2917
.L5912:
	testl	%eax, %eax
	jne	.L1866
	addsd	408(%rdi), %xmm9
	movl	%edx, %edx
	movsd	env_curve(,%rdx,8), %xmm7
	movsd	%xmm7, 400(%rdi)
	ucomisd	.LC1(%rip), %xmm9
	movsd	%xmm9, 344(%rdi)
	jb	.L1866
	movl	$1, 440(%rdi)
	movq	$0, 344(%rdi)
	jmp	.L1866
.L5934:
	testl	%eax, %eax
	jne	.L1554
	addsd	88(%rdi), %xmm9
	movl	%edx, %edx
	movsd	env_curve(,%rdx,8), %xmm7
	movsd	%xmm7, 80(%rdi)
	ucomisd	.LC1(%rip), %xmm9
	movsd	%xmm9, 24(%rdi)
	jb	.L1554
	movl	$1, 120(%rdi)
	movq	$0, 24(%rdi)
	jmp	.L1554
.L5918:
	testl	%eax, %eax
	jne	.L1788
	addsd	408(%rdi), %xmm9
	movl	%edx, %edx
	movsd	env_curve(,%rdx,8), %xmm7
	movsd	%xmm7, 400(%rdi)
	ucomisd	.LC1(%rip), %xmm9
	movsd	%xmm9, 344(%rdi)
	jb	.L1788
	movl	$1, 440(%rdi)
	movq	$0, 344(%rdi)
	jmp	.L1788
.L5962:
	testl	%eax, %eax
	jne	.L3317
	addsd	408(%rdi), %xmm5
	movl	%edx, %edx
	movsd	env_curve(,%rdx,8), %xmm4
	movsd	%xmm4, 400(%rdi)
	ucomisd	.LC1(%rip), %xmm5
	movsd	%xmm5, 344(%rdi)
	jb	.L1177
	movl	$1, 440(%rdi)
	movq	$0, 344(%rdi)
	jmp	.L1177
.L5946:
	testl	%eax, %eax
	jne	.L4932
	addsd	408(%rdi), %xmm3
	movl	%edx, %edx
	movsd	env_curve(,%rdx,8), %xmm10
	movsd	%xmm10, 400(%rdi)
	ucomisd	.LC1(%rip), %xmm3
	movsd	%xmm3, 344(%rdi)
	jb	.L4932
	movl	$1, 440(%rdi)
	movq	$0, 344(%rdi)
	xorpd	%xmm4, %xmm4
	jmp	.L1268
.L5914:
	testl	%eax, %eax
	jne	.L5076
	addsd	248(%rdi), %xmm3
	movl	%edx, %edx
	movsd	env_curve(,%rdx,8), %xmm10
	movsd	%xmm10, 240(%rdi)
	ucomisd	.LC1(%rip), %xmm3
	movsd	%xmm3, 184(%rdi)
	jb	.L5076
	movl	$1, 280(%rdi)
	movq	$0, 184(%rdi)
	xorpd	%xmm4, %xmm4
	jmp	.L1736
.L5848:
	testl	%eax, %eax
	jne	.L2735
	addsd	88(%rdi), %xmm8
	movl	%edx, %edx
	movsd	env_curve(,%rdx,8), %xmm0
	movsd	%xmm0, 80(%rdi)
	ucomisd	.LC1(%rip), %xmm8
	movsd	%xmm8, 24(%rdi)
	jb	.L2735
	movl	$1, 120(%rdi)
	movq	$0, 24(%rdi)
	jmp	.L2735
.L5824:
	testl	%eax, %eax
	jne	.L3047
	addsd	88(%rdi), %xmm9
	movl	%edx, %edx
	movsd	env_curve(,%rdx,8), %xmm0
	movsd	%xmm0, 80(%rdi)
	ucomisd	.LC1(%rip), %xmm9
	movsd	%xmm9, 24(%rdi)
	jb	.L3047
	movl	$1, 120(%rdi)
	movq	$0, 24(%rdi)
	jmp	.L3047
.L5952:
	testl	%eax, %eax
	jne	.L1203
	addsd	88(%rdi), %xmm0
	movl	%edx, %edx
	movsd	env_curve(,%rdx,8), %xmm10
	movsd	%xmm10, 80(%rdi)
	ucomisd	.LC1(%rip), %xmm0
	movsd	%xmm0, 24(%rdi)
	jb	.L1203
	movl	$1, 120(%rdi)
	movq	$0, 24(%rdi)
	jmp	.L1203
.L5953:
	testl	%eax, %eax
	jne	.L1216
	addsd	888(%rdi), %xmm0
	movl	%edx, %edx
	movsd	env_curve(,%rdx,8), %xmm5
	movsd	%xmm5, 880(%rdi)
	ucomisd	.LC1(%rip), %xmm0
	movsd	%xmm0, 824(%rdi)
	jb	.L1216
	movl	$1, 920(%rdi)
	movq	$0, 824(%rdi)
	jmp	.L1216
.L5944:
	testl	%eax, %eax
	jne	.L1398
	addsd	728(%rdi), %xmm0
	movl	%edx, %edx
	movsd	env_curve(,%rdx,8), %xmm5
	movsd	%xmm5, 720(%rdi)
	ucomisd	.LC1(%rip), %xmm0
	movsd	%xmm0, 664(%rdi)
	jb	.L1398
	movl	$1, 760(%rdi)
	movq	$0, 664(%rdi)
	jmp	.L1398
.L5954:
	testl	%eax, %eax
	jne	.L1229
	addsd	728(%rdi), %xmm8
	movl	%edx, %edx
	movsd	env_curve(,%rdx,8), %xmm0
	movsd	%xmm0, 720(%rdi)
	ucomisd	.LC1(%rip), %xmm8
	movsd	%xmm8, 664(%rdi)
	jb	.L1229
	movl	$1, 760(%rdi)
	movq	$0, 664(%rdi)
	jmp	.L1229
.L5979:
	testl	%eax, %eax
	jne	.L4788
	addsd	408(%rdi), %xmm3
	movl	%edx, %edx
	movsd	env_curve(,%rdx,8), %xmm10
	movsd	%xmm10, 400(%rdi)
	ucomisd	.LC1(%rip), %xmm3
	movsd	%xmm3, 344(%rdi)
	jb	.L4788
	movl	$1, 440(%rdi)
	movq	$0, 344(%rdi)
	xorpd	%xmm4, %xmm4
	jmp	.L800
.L5982:
	testl	%eax, %eax
	jne	.L839
	addsd	888(%rdi), %xmm6
	movl	%edx, %edx
	movsd	env_curve(,%rdx,8), %xmm5
	movsd	%xmm5, 880(%rdi)
	ucomisd	.LC1(%rip), %xmm6
	movsd	%xmm6, 824(%rdi)
	jb	.L839
	movl	$1, 920(%rdi)
	movq	$0, 824(%rdi)
	jmp	.L839
.L5981:
	testl	%eax, %eax
	jne	.L826
	addsd	88(%rdi), %xmm10
	movl	%edx, %edx
	movsd	env_curve(,%rdx,8), %xmm0
	movsd	%xmm0, 80(%rdi)
	ucomisd	.LC1(%rip), %xmm10
	movsd	%xmm10, 24(%rdi)
	jb	.L826
	movl	$1, 120(%rdi)
	movq	$0, 24(%rdi)
	jmp	.L826
.L5980:
	testl	%eax, %eax
	jne	.L813
	addsd	248(%rdi), %xmm3
	movl	%edx, %edx
	movsd	env_curve(,%rdx,8), %xmm6
	movsd	%xmm6, 240(%rdi)
	ucomisd	.LC1(%rip), %xmm3
	movsd	%xmm3, 184(%rdi)
	jb	.L813
	movl	$1, 280(%rdi)
	movq	$0, 184(%rdi)
	jmp	.L813
.L5936:
	testl	%eax, %eax
	jne	.L1437
	addsd	888(%rdi), %xmm10
	movl	%edx, %edx
	movsd	env_curve(,%rdx,8), %xmm0
	movsd	%xmm0, 880(%rdi)
	ucomisd	.LC1(%rip), %xmm10
	movsd	%xmm10, 824(%rdi)
	jb	.L1437
	movl	$1, 920(%rdi)
	movq	$0, 824(%rdi)
	jmp	.L1437
.L5937:
	testl	%eax, %eax
	jne	.L1450
	addsd	728(%rdi), %xmm10
	movl	%edx, %edx
	movsd	env_curve(,%rdx,8), %xmm8
	movsd	%xmm8, 720(%rdi)
	ucomisd	.LC1(%rip), %xmm10
	movsd	%xmm10, 664(%rdi)
	jb	.L1450
	movl	$1, 760(%rdi)
	movq	$0, 664(%rdi)
	jmp	.L1450
.L5957:
	testl	%eax, %eax
	jne	.L4884
	addsd	248(%rdi), %xmm3
	movl	%edx, %edx
	movsd	env_curve(,%rdx,8), %xmm11
	movsd	%xmm11, 240(%rdi)
	ucomisd	.LC1(%rip), %xmm3
	movsd	%xmm3, 184(%rdi)
	jb	.L4884
	movl	$1, 280(%rdi)
	movq	$0, 184(%rdi)
	xorpd	%xmm4, %xmm4
	jmp	.L1112
.L5940:
	testl	%eax, %eax
	jne	.L4956
	addsd	408(%rdi), %xmm3
	movl	%edx, %edx
	movsd	env_curve(,%rdx,8), %xmm11
	movsd	%xmm11, 400(%rdi)
	ucomisd	.LC1(%rip), %xmm3
	movsd	%xmm3, 344(%rdi)
	jb	.L4956
	movl	$1, 440(%rdi)
	movq	$0, 344(%rdi)
	xorpd	%xmm4, %xmm4
	jmp	.L1346
.L5939:
	testl	%eax, %eax
	jne	.L1476
	addsd	88(%rdi), %xmm9
	movl	%edx, %edx
	movsd	env_curve(,%rdx,8), %xmm7
	movsd	%xmm7, 80(%rdi)
	ucomisd	.LC1(%rip), %xmm9
	movsd	%xmm9, 24(%rdi)
	jb	.L1476
	movl	$1, 120(%rdi)
	movq	$0, 24(%rdi)
	jmp	.L1476
.L5938:
	testl	%eax, %eax
	jne	.L1463
	addsd	568(%rdi), %xmm7
	movl	%edx, %edx
	movsd	env_curve(,%rdx,8), %xmm10
	movsd	%xmm10, 560(%rdi)
	ucomisd	.LC1(%rip), %xmm7
	movsd	%xmm7, 504(%rdi)
	jb	.L1463
	movl	$1, 600(%rdi)
	movq	$0, 504(%rdi)
	jmp	.L1463
.L5999:
	testl	%eax, %eax
	jne	.L5484
	addsd	888(%rdi), %xmm0
	movl	%edx, %edx
	movsd	env_curve(,%rdx,8), %xmm3
	movsd	%xmm3, 880(%rdi)
	ucomisd	.LC1(%rip), %xmm0
	movsd	%xmm0, 824(%rdi)
	jb	.L5484
	movl	$1, 920(%rdi)
	movq	$0, 824(%rdi)
	xorpd	%xmm4, %xmm4
	jmp	.L3060
.L6001:
	testl	%eax, %eax
	jne	.L3082
	addsd	568(%rdi), %xmm0
	movl	%edx, %edx
	movsd	env_curve(,%rdx,8), %xmm3
	movsd	%xmm3, 560(%rdi)
	ucomisd	.LC1(%rip), %xmm0
	movsd	%xmm0, 504(%rdi)
	jb	.L3082
	movl	$1, 600(%rdi)
	movq	$0, 504(%rdi)
	jmp	.L3082
.L6000:
	testl	%eax, %eax
	jne	.L3071
	addsd	728(%rdi), %xmm0
	movl	%edx, %edx
	movsd	env_curve(,%rdx,8), %xmm3
	movsd	%xmm3, 720(%rdi)
	ucomisd	.LC1(%rip), %xmm0
	movsd	%xmm0, 664(%rdi)
	jb	.L3071
	movl	$1, 760(%rdi)
	movq	$0, 664(%rdi)
	jmp	.L3071
.L6003:
	testl	%eax, %eax
	jne	.L3104
	addsd	248(%rdi), %xmm0
	movl	%edx, %edx
	movsd	env_curve(,%rdx,8), %xmm3
	movsd	%xmm3, 240(%rdi)
	ucomisd	.LC1(%rip), %xmm0
	movsd	%xmm0, 184(%rdi)
	jb	.L3104
	movl	$1, 280(%rdi)
	movq	$0, 184(%rdi)
	jmp	.L3104
.L6002:
	testl	%eax, %eax
	jne	.L3093
	addsd	408(%rdi), %xmm0
	movl	%edx, %edx
	movsd	env_curve(,%rdx,8), %xmm3
	movsd	%xmm3, 400(%rdi)
	ucomisd	.LC1(%rip), %xmm0
	movsd	%xmm0, 344(%rdi)
	jb	.L3093
	movl	$1, 440(%rdi)
	movq	$0, 344(%rdi)
	jmp	.L3093
.L5897:
	testl	%eax, %eax
	jne	.L1981
	addsd	728(%rdi), %xmm10
	movl	%edx, %edx
	movsd	env_curve(,%rdx,8), %xmm8
	movsd	%xmm8, 720(%rdi)
	ucomisd	.LC1(%rip), %xmm10
	movsd	%xmm10, 664(%rdi)
	jb	.L1981
	movl	$1, 760(%rdi)
	movq	$0, 664(%rdi)
	jmp	.L1981
.L5959:
	testl	%eax, %eax
	jne	.L1138
	addsd	888(%rdi), %xmm0
	movl	%edx, %edx
	movsd	env_curve(,%rdx,8), %xmm5
	movsd	%xmm5, 880(%rdi)
	ucomisd	.LC1(%rip), %xmm0
	movsd	%xmm0, 824(%rdi)
	jb	.L1138
	movl	$1, 920(%rdi)
	movq	$0, 824(%rdi)
	jmp	.L1138
.L5958:
	testl	%eax, %eax
	jne	.L1125
	addsd	88(%rdi), %xmm0
	movl	%edx, %edx
	movsd	env_curve(,%rdx,8), %xmm10
	movsd	%xmm10, 80(%rdi)
	ucomisd	.LC1(%rip), %xmm0
	movsd	%xmm0, 24(%rdi)
	jb	.L1125
	movl	$1, 120(%rdi)
	movq	$0, 24(%rdi)
	jmp	.L1125
.L5960:
	testl	%eax, %eax
	jne	.L1151
	addsd	728(%rdi), %xmm8
	movl	%edx, %edx
	movsd	env_curve(,%rdx,8), %xmm0
	movsd	%xmm0, 720(%rdi)
	ucomisd	.LC1(%rip), %xmm8
	movsd	%xmm8, 664(%rdi)
	jb	.L1151
	movl	$1, 760(%rdi)
	movq	$0, 664(%rdi)
	jmp	.L1151
.L5978:
	testl	%eax, %eax
	jne	.L3245
	addsd	728(%rdi), %xmm5
	movl	%edx, %edx
	movsd	env_curve(,%rdx,8), %xmm4
	movsd	%xmm4, 720(%rdi)
	ucomisd	.LC1(%rip), %xmm5
	movsd	%xmm5, 664(%rdi)
	jb	.L943
	movl	$1, 760(%rdi)
	movq	$0, 664(%rdi)
	jmp	.L943
.L5964:
	testl	%eax, %eax
	jne	.L1047
	addsd	88(%rdi), %xmm0
	movl	%edx, %edx
	movsd	env_curve(,%rdx,8), %xmm10
	movsd	%xmm10, 80(%rdi)
	ucomisd	.LC1(%rip), %xmm0
	movsd	%xmm0, 24(%rdi)
	jb	.L1047
	movl	$1, 120(%rdi)
	movq	$0, 24(%rdi)
	jmp	.L1047
.L5963:
	testl	%eax, %eax
	jne	.L4860
	addsd	248(%rdi), %xmm3
	movl	%edx, %edx
	movsd	env_curve(,%rdx,8), %xmm11
	movsd	%xmm11, 240(%rdi)
	ucomisd	.LC1(%rip), %xmm3
	movsd	%xmm3, 184(%rdi)
	jb	.L4860
	movl	$1, 280(%rdi)
	movq	$0, 184(%rdi)
	xorpd	%xmm4, %xmm4
	jmp	.L1034
.L5961:
	testl	%eax, %eax
	jne	.L1164
	addsd	568(%rdi), %xmm7
	movl	%edx, %edx
	movsd	env_curve(,%rdx,8), %xmm5
	movsd	%xmm5, 560(%rdi)
	ucomisd	.LC1(%rip), %xmm7
	movsd	%xmm7, 504(%rdi)
	jb	.L1164
	movl	$1, 600(%rdi)
	movq	$0, 504(%rdi)
	jmp	.L1164
.L5967:
	testl	%eax, %eax
	jne	.L4836
	addsd	248(%rdi), %xmm3
	movl	%edx, %edx
	movsd	env_curve(,%rdx,8), %xmm11
	movsd	%xmm11, 240(%rdi)
	ucomisd	.LC1(%rip), %xmm3
	movsd	%xmm3, 184(%rdi)
	jb	.L4836
	movl	$1, 280(%rdi)
	movq	$0, 184(%rdi)
	xorpd	%xmm4, %xmm4
	jmp	.L956
.L5966:
	testl	%eax, %eax
	jne	.L1073
	addsd	728(%rdi), %xmm5
	movl	%edx, %edx
	movsd	env_curve(,%rdx,8), %xmm0
	movsd	%xmm0, 720(%rdi)
	ucomisd	.LC1(%rip), %xmm5
	movsd	%xmm5, 664(%rdi)
	jb	.L1073
	movl	$1, 760(%rdi)
	movq	$0, 664(%rdi)
	jmp	.L1073
.L5965:
	testl	%eax, %eax
	jne	.L1060
	addsd	888(%rdi), %xmm5
	movl	%edx, %edx
	movsd	env_curve(,%rdx,8), %xmm0
	movsd	%xmm0, 880(%rdi)
	ucomisd	.LC1(%rip), %xmm5
	movsd	%xmm5, 824(%rdi)
	jb	.L1060
	movl	$1, 920(%rdi)
	movq	$0, 824(%rdi)
	jmp	.L1060
.L5896:
	testl	%eax, %eax
	jne	.L5148
	addsd	888(%rdi), %xmm3
	movl	%edx, %edx
	movsd	env_curve(,%rdx,8), %xmm10
	movsd	%xmm10, 880(%rdi)
	ucomisd	.LC1(%rip), %xmm3
	movsd	%xmm3, 824(%rdi)
	jb	.L5148
	movl	$1, 920(%rdi)
	movq	$0, 824(%rdi)
	xorpd	%xmm4, %xmm4
	jmp	.L1968
.L5968:
	testl	%eax, %eax
	jne	.L969
	addsd	88(%rdi), %xmm0
	movl	%edx, %edx
	movsd	env_curve(,%rdx,8), %xmm10
	movsd	%xmm10, 80(%rdi)
	ucomisd	.LC1(%rip), %xmm0
	movsd	%xmm0, 24(%rdi)
	jb	.L969
	movl	$1, 120(%rdi)
	movq	$0, 24(%rdi)
	jmp	.L969
.L5969:
	testl	%eax, %eax
	jne	.L982
	addsd	568(%rdi), %xmm0
	movl	%edx, %edx
	movsd	env_curve(,%rdx,8), %xmm5
	movsd	%xmm5, 560(%rdi)
	ucomisd	.LC1(%rip), %xmm0
	movsd	%xmm0, 504(%rdi)
	jb	.L982
	movl	$1, 600(%rdi)
	movq	$0, 504(%rdi)
	jmp	.L982
.L5972:
	testl	%eax, %eax
	jne	.L1021
	addsd	728(%rdi), %xmm6
	movl	%edx, %edx
	movsd	env_curve(,%rdx,8), %xmm1
	movsd	%xmm1, 720(%rdi)
	ucomisd	.LC1(%rip), %xmm6
	movsd	%xmm6, 664(%rdi)
	jb	.L1021
	movl	$1, 760(%rdi)
	movq	$0, 664(%rdi)
	jmp	.L1021
.L5971:
	testl	%eax, %eax
	jne	.L1008
	addsd	888(%rdi), %xmm6
	movl	%edx, %edx
	movsd	env_curve(,%rdx,8), %xmm5
	movsd	%xmm5, 880(%rdi)
	ucomisd	.LC1(%rip), %xmm6
	movsd	%xmm6, 824(%rdi)
	jb	.L1008
	movl	$1, 920(%rdi)
	movq	$0, 824(%rdi)
	jmp	.L1008
.L5970:
	testl	%eax, %eax
	jne	.L995
	addsd	408(%rdi), %xmm9
	movl	%edx, %edx
	movsd	env_curve(,%rdx,8), %xmm0
	movsd	%xmm0, 400(%rdi)
	ucomisd	.LC1(%rip), %xmm9
	movsd	%xmm9, 344(%rdi)
	jb	.L995
	movl	$1, 440(%rdi)
	movq	$0, 344(%rdi)
	jmp	.L995
.L5973:
	testl	%eax, %eax
	jne	.L4812
	addsd	248(%rdi), %xmm3
	movl	%edx, %edx
	movsd	env_curve(,%rdx,8), %xmm11
	movsd	%xmm11, 240(%rdi)
	ucomisd	.LC1(%rip), %xmm3
	movsd	%xmm3, 184(%rdi)
	jb	.L4812
	movl	$1, 280(%rdi)
	movq	$0, 184(%rdi)
	xorpd	%xmm4, %xmm4
	jmp	.L878
.L5974:
	testl	%eax, %eax
	jne	.L891
	addsd	88(%rdi), %xmm0
	movl	%edx, %edx
	movsd	env_curve(,%rdx,8), %xmm10
	movsd	%xmm10, 80(%rdi)
	ucomisd	.LC1(%rip), %xmm0
	movsd	%xmm0, 24(%rdi)
	jb	.L891
	movl	$1, 120(%rdi)
	movq	$0, 24(%rdi)
	jmp	.L891
.L5977:
	testl	%eax, %eax
	jne	.L930
	addsd	888(%rdi), %xmm6
	movl	%edx, %edx
	movsd	env_curve(,%rdx,8), %xmm5
	movsd	%xmm5, 880(%rdi)
	ucomisd	.LC1(%rip), %xmm6
	movsd	%xmm6, 824(%rdi)
	jb	.L930
	movl	$1, 920(%rdi)
	movq	$0, 824(%rdi)
	jmp	.L930
.L5976:
	testl	%eax, %eax
	jne	.L917
	addsd	408(%rdi), %xmm9
	movl	%edx, %edx
	movsd	env_curve(,%rdx,8), %xmm0
	movsd	%xmm0, 400(%rdi)
	ucomisd	.LC1(%rip), %xmm9
	movsd	%xmm9, 344(%rdi)
	jb	.L917
	movl	$1, 440(%rdi)
	movq	$0, 344(%rdi)
	jmp	.L917
.L5975:
	testl	%eax, %eax
	jne	.L904
	addsd	568(%rdi), %xmm0
	movl	%edx, %edx
	movsd	env_curve(,%rdx,8), %xmm5
	movsd	%xmm5, 560(%rdi)
	ucomisd	.LC1(%rip), %xmm0
	movsd	%xmm0, 504(%rdi)
	jb	.L904
	movl	$1, 600(%rdi)
	movq	$0, 504(%rdi)
	jmp	.L904
.L5985:
	testl	%eax, %eax
	jne	.L4764
	addsd	408(%rdi), %xmm3
	movl	%edx, %edx
	movsd	env_curve(,%rdx,8), %xmm11
	movsd	%xmm11, 400(%rdi)
	ucomisd	.LC1(%rip), %xmm3
	movsd	%xmm3, 344(%rdi)
	jb	.L4764
	movl	$1, 440(%rdi)
	movq	$0, 344(%rdi)
	xorpd	%xmm4, %xmm4
	jmp	.L722
.L5983:
	testl	%eax, %eax
	jne	.L852
	addsd	728(%rdi), %xmm6
	movl	%edx, %edx
	movsd	env_curve(,%rdx,8), %xmm5
	movsd	%xmm5, 720(%rdi)
	ucomisd	.LC1(%rip), %xmm6
	movsd	%xmm6, 664(%rdi)
	jb	.L852
	movl	$1, 760(%rdi)
	movq	$0, 664(%rdi)
	jmp	.L852
.L5895:
	testl	%eax, %eax
	jne	.L2111
	addsd	88(%rdi), %xmm8
	movl	%edx, %edx
	movsd	env_curve(,%rdx,8), %xmm0
	movsd	%xmm0, 80(%rdi)
	ucomisd	.LC1(%rip), %xmm8
	movsd	%xmm8, 24(%rdi)
	jb	.L2111
	movl	$1, 120(%rdi)
	movq	$0, 24(%rdi)
	jmp	.L2111
.L5894:
	testl	%eax, %eax
	jne	.L2098
	addsd	248(%rdi), %xmm8
	movl	%edx, %edx
	movsd	env_curve(,%rdx,8), %xmm6
	movsd	%xmm6, 240(%rdi)
	ucomisd	.LC1(%rip), %xmm8
	movsd	%xmm8, 184(%rdi)
	jb	.L2098
	movl	$1, 280(%rdi)
	movq	$0, 184(%rdi)
	jmp	.L2098
.L5893:
	testl	%eax, %eax
	jne	.L2085
	addsd	408(%rdi), %xmm9
	movl	%edx, %edx
	movsd	env_curve(,%rdx,8), %xmm8
	movsd	%xmm8, 400(%rdi)
	ucomisd	.LC1(%rip), %xmm9
	movsd	%xmm9, 344(%rdi)
	jb	.L2085
	movl	$1, 440(%rdi)
	movq	$0, 344(%rdi)
	jmp	.L2085
.L5903:
	testl	%eax, %eax
	jne	.L1905
	addsd	888(%rdi), %xmm0
	movl	%edx, %edx
	movsd	env_curve(,%rdx,8), %xmm10
	movsd	%xmm10, 880(%rdi)
	ucomisd	.LC1(%rip), %xmm0
	movsd	%xmm0, 824(%rdi)
	jb	.L1905
	movl	$1, 920(%rdi)
	movq	$0, 824(%rdi)
	jmp	.L1905
.L5902:
	testl	%eax, %eax
	jne	.L5124
	addsd	248(%rdi), %xmm3
	movl	%edx, %edx
	movsd	env_curve(,%rdx,8), %xmm9
	movsd	%xmm9, 240(%rdi)
	ucomisd	.LC1(%rip), %xmm3
	movsd	%xmm3, 184(%rdi)
	jb	.L5124
	movl	$1, 280(%rdi)
	movq	$0, 184(%rdi)
	xorpd	%xmm4, %xmm4
	jmp	.L1892
.L5901:
	testl	%eax, %eax
	jne	.L2033
	addsd	88(%rdi), %xmm9
	movl	%edx, %edx
	movsd	env_curve(,%rdx,8), %xmm0
	movsd	%xmm0, 80(%rdi)
	ucomisd	.LC1(%rip), %xmm9
	movsd	%xmm9, 24(%rdi)
	jb	.L2033
	movl	$1, 120(%rdi)
	movq	$0, 24(%rdi)
	jmp	.L2033
.L5900:
	testl	%eax, %eax
	jne	.L2020
	addsd	248(%rdi), %xmm10
	movl	%edx, %edx
	movsd	env_curve(,%rdx,8), %xmm6
	movsd	%xmm6, 240(%rdi)
	ucomisd	.LC1(%rip), %xmm10
	movsd	%xmm10, 184(%rdi)
	jb	.L2020
	movl	$1, 280(%rdi)
	movq	$0, 184(%rdi)
	jmp	.L2020
.L5899:
	testl	%eax, %eax
	jne	.L2007
	addsd	408(%rdi), %xmm10
	movl	%edx, %edx
	movsd	env_curve(,%rdx,8), %xmm9
	movsd	%xmm9, 400(%rdi)
	ucomisd	.LC1(%rip), %xmm10
	movsd	%xmm10, 344(%rdi)
	jb	.L2007
	movl	$1, 440(%rdi)
	movq	$0, 344(%rdi)
	jmp	.L2007
.L5898:
	testl	%eax, %eax
	jne	.L1994
	addsd	568(%rdi), %xmm10
	movl	%edx, %edx
	movsd	env_curve(,%rdx,8), %xmm7
	movsd	%xmm7, 560(%rdi)
	ucomisd	.LC1(%rip), %xmm10
	movsd	%xmm10, 504(%rdi)
	jb	.L1994
	movl	$1, 600(%rdi)
	movq	$0, 504(%rdi)
	jmp	.L1994
.L5931:
	testl	%eax, %eax
	jne	.L1515
	addsd	888(%rdi), %xmm3
	movl	%edx, %edx
	movsd	env_curve(,%rdx,8), %xmm0
	movsd	%xmm0, 880(%rdi)
	ucomisd	.LC1(%rip), %xmm3
	movsd	%xmm3, 824(%rdi)
	jb	.L1515
	movl	$1, 920(%rdi)
	movq	$0, 824(%rdi)
	jmp	.L1515
.L5908:
	testl	%eax, %eax
	jne	.L5100
	addsd	248(%rdi), %xmm3
	movl	%edx, %edx
	movsd	env_curve(,%rdx,8), %xmm10
	movsd	%xmm10, 240(%rdi)
	ucomisd	.LC1(%rip), %xmm3
	movsd	%xmm3, 184(%rdi)
	jb	.L5100
	movl	$1, 280(%rdi)
	movq	$0, 184(%rdi)
	xorpd	%xmm4, %xmm4
	jmp	.L1814
.L5907:
	testl	%eax, %eax
	jne	.L1955
	addsd	88(%rdi), %xmm6
	movl	%edx, %edx
	movsd	env_curve(,%rdx,8), %xmm0
	movsd	%xmm0, 80(%rdi)
	ucomisd	.LC1(%rip), %xmm6
	movsd	%xmm6, 24(%rdi)
	jb	.L1955
	movl	$1, 120(%rdi)
	movq	$0, 24(%rdi)
	jmp	.L1955
.L5906:
	testl	%eax, %eax
	jne	.L1942
	addsd	408(%rdi), %xmm8
	movl	%edx, %edx
	movsd	env_curve(,%rdx,8), %xmm7
	movsd	%xmm7, 400(%rdi)
	ucomisd	.LC1(%rip), %xmm8
	movsd	%xmm8, 344(%rdi)
	jb	.L1942
	movl	$1, 440(%rdi)
	movq	$0, 344(%rdi)
	jmp	.L1942
.L5905:
	testl	%eax, %eax
	jne	.L1931
	addsd	568(%rdi), %xmm7
	movl	%edx, %edx
	movsd	env_curve(,%rdx,8), %xmm8
	movsd	%xmm8, 560(%rdi)
	ucomisd	.LC1(%rip), %xmm7
	movsd	%xmm7, 504(%rdi)
	jb	.L1931
	movl	$1, 600(%rdi)
	movq	$0, 504(%rdi)
	jmp	.L1931
.L5904:
	testl	%eax, %eax
	jne	.L1918
	addsd	728(%rdi), %xmm3
	movl	%edx, %edx
	movsd	env_curve(,%rdx,8), %xmm0
	movsd	%xmm0, 720(%rdi)
	ucomisd	.LC1(%rip), %xmm3
	movsd	%xmm3, 664(%rdi)
	jb	.L1918
	movl	$1, 760(%rdi)
	movq	$0, 664(%rdi)
	jmp	.L1918
.L5943:
	testl	%eax, %eax
	jne	.L1385
	addsd	888(%rdi), %xmm5
	movl	%edx, %edx
	movsd	env_curve(,%rdx,8), %xmm0
	movsd	%xmm0, 880(%rdi)
	ucomisd	.LC1(%rip), %xmm5
	movsd	%xmm5, 824(%rdi)
	jb	.L1385
	movl	$1, 920(%rdi)
	movq	$0, 824(%rdi)
	jmp	.L1385
.L5942:
	testl	%eax, %eax
	jne	.L1372
	addsd	88(%rdi), %xmm0
	movl	%edx, %edx
	movsd	env_curve(,%rdx,8), %xmm6
	movsd	%xmm6, 80(%rdi)
	ucomisd	.LC1(%rip), %xmm0
	movsd	%xmm0, 24(%rdi)
	jb	.L1372
	movl	$1, 120(%rdi)
	movq	$0, 24(%rdi)
	jmp	.L1372
.L5941:
	testl	%eax, %eax
	jne	.L1359
	addsd	248(%rdi), %xmm3
	movl	%edx, %edx
	movsd	env_curve(,%rdx,8), %xmm10
	movsd	%xmm10, 240(%rdi)
	ucomisd	.LC1(%rip), %xmm3
	movsd	%xmm3, 184(%rdi)
	jb	.L1359
	movl	$1, 280(%rdi)
	movq	$0, 184(%rdi)
	jmp	.L1359
.L5911:
	testl	%eax, %eax
	jne	.L1853
	addsd	568(%rdi), %xmm7
	movl	%edx, %edx
	movsd	env_curve(,%rdx,8), %xmm8
	movsd	%xmm8, 560(%rdi)
	ucomisd	.LC1(%rip), %xmm7
	movsd	%xmm7, 504(%rdi)
	jb	.L1853
	movl	$1, 600(%rdi)
	movq	$0, 504(%rdi)
	jmp	.L1853
.L5910:
	testl	%eax, %eax
	jne	.L1840
	addsd	728(%rdi), %xmm8
	movl	%edx, %edx
	movsd	env_curve(,%rdx,8), %xmm0
	movsd	%xmm0, 720(%rdi)
	ucomisd	.LC1(%rip), %xmm8
	movsd	%xmm8, 664(%rdi)
	jb	.L1840
	movl	$1, 760(%rdi)
	movq	$0, 664(%rdi)
	jmp	.L1840
.L5909:
	testl	%eax, %eax
	jne	.L1827
	addsd	888(%rdi), %xmm0
	movl	%edx, %edx
	movsd	env_curve(,%rdx,8), %xmm10
	movsd	%xmm10, 880(%rdi)
	ucomisd	.LC1(%rip), %xmm0
	movsd	%xmm0, 824(%rdi)
	jb	.L1827
	movl	$1, 920(%rdi)
	movq	$0, 824(%rdi)
	jmp	.L1827
.L5925:
	testl	%eax, %eax
	jne	.L5028
	addsd	248(%rdi), %xmm3
	movl	%edx, %edx
	movsd	env_curve(,%rdx,8), %xmm10
	movsd	%xmm10, 240(%rdi)
	ucomisd	.LC1(%rip), %xmm3
	movsd	%xmm3, 184(%rdi)
	jb	.L5028
	movl	$1, 280(%rdi)
	movq	$0, 184(%rdi)
	xorpd	%xmm4, %xmm4
	jmp	.L1580
.L5927:
	testl	%eax, %eax
	jne	.L1606
	addsd	728(%rdi), %xmm8
	movl	%edx, %edx
	movsd	env_curve(,%rdx,8), %xmm0
	movsd	%xmm0, 720(%rdi)
	ucomisd	.LC1(%rip), %xmm8
	movsd	%xmm8, 664(%rdi)
	jb	.L1606
	movl	$1, 760(%rdi)
	movq	$0, 664(%rdi)
	jmp	.L1606
.L5926:
	testl	%eax, %eax
	jne	.L1593
	addsd	888(%rdi), %xmm3
	movl	%edx, %edx
	movsd	env_curve(,%rdx,8), %xmm0
	movsd	%xmm0, 880(%rdi)
	ucomisd	.LC1(%rip), %xmm3
	movsd	%xmm3, 824(%rdi)
	jb	.L1593
	movl	$1, 920(%rdi)
	movq	$0, 824(%rdi)
	jmp	.L1593
.L5930:
	testl	%eax, %eax
	jne	.L5004
	addsd	248(%rdi), %xmm3
	movl	%edx, %edx
	movsd	env_curve(,%rdx,8), %xmm10
	movsd	%xmm10, 240(%rdi)
	ucomisd	.LC1(%rip), %xmm3
	movsd	%xmm3, 184(%rdi)
	jb	.L5004
	movl	$1, 280(%rdi)
	movq	$0, 184(%rdi)
	xorpd	%xmm4, %xmm4
	jmp	.L1502
.L5929:
	testl	%eax, %eax
	jne	.L1632
	addsd	88(%rdi), %xmm0
	movl	%edx, %edx
	movsd	env_curve(,%rdx,8), %xmm7
	movsd	%xmm7, 80(%rdi)
	ucomisd	.LC1(%rip), %xmm0
	movsd	%xmm0, 24(%rdi)
	jb	.L1632
	movl	$1, 120(%rdi)
	movq	$0, 24(%rdi)
	jmp	.L1632
.L5928:
	testl	%eax, %eax
	jne	.L1619
	addsd	568(%rdi), %xmm7
	movl	%edx, %edx
	movsd	env_curve(,%rdx,8), %xmm8
	movsd	%xmm8, 560(%rdi)
	ucomisd	.LC1(%rip), %xmm7
	movsd	%xmm7, 504(%rdi)
	jb	.L1619
	movl	$1, 600(%rdi)
	movq	$0, 504(%rdi)
	jmp	.L1619
.L5987:
	testl	%eax, %eax
	jne	.L748
	addsd	88(%rdi), %xmm0
	movl	%edx, %edx
	movsd	env_curve(,%rdx,8), %xmm6
	movsd	%xmm6, 80(%rdi)
	ucomisd	.LC1(%rip), %xmm0
	movsd	%xmm0, 24(%rdi)
	jb	.L748
	movl	$1, 120(%rdi)
	movq	$0, 24(%rdi)
	jmp	.L748
.L5932:
	testl	%eax, %eax
	jne	.L1528
	addsd	728(%rdi), %xmm8
	movl	%edx, %edx
	movsd	env_curve(,%rdx,8), %xmm0
	movsd	%xmm0, 720(%rdi)
	ucomisd	.LC1(%rip), %xmm8
	movsd	%xmm8, 664(%rdi)
	jb	.L1528
	movl	$1, 760(%rdi)
	movq	$0, 664(%rdi)
	jmp	.L1528
.L5935:
	testl	%eax, %eax
	jne	.L4980
	addsd	248(%rdi), %xmm3
	movl	%edx, %edx
	movsd	env_curve(,%rdx,8), %xmm10
	movsd	%xmm10, 240(%rdi)
	ucomisd	.LC1(%rip), %xmm3
	movsd	%xmm3, 184(%rdi)
	jb	.L4980
	movl	$1, 280(%rdi)
	movq	$0, 184(%rdi)
	xorpd	%xmm4, %xmm4
	jmp	.L1424
.L5933:
	testl	%eax, %eax
	jne	.L1541
	addsd	568(%rdi), %xmm7
	movl	%edx, %edx
	movsd	env_curve(,%rdx,8), %xmm8
	movsd	%xmm8, 560(%rdi)
	ucomisd	.LC1(%rip), %xmm7
	movsd	%xmm7, 504(%rdi)
	jb	.L1541
	movl	$1, 600(%rdi)
	movq	$0, 504(%rdi)
	jmp	.L1541
.L5915:
	testl	%eax, %eax
	jne	.L1749
	addsd	888(%rdi), %xmm3
	movl	%edx, %edx
	movsd	env_curve(,%rdx,8), %xmm0
	movsd	%xmm0, 880(%rdi)
	ucomisd	.LC1(%rip), %xmm3
	movsd	%xmm3, 824(%rdi)
	jb	.L1749
	movl	$1, 920(%rdi)
	movq	$0, 824(%rdi)
	jmp	.L1749
.L5916:
	testl	%eax, %eax
	jne	.L1762
	addsd	728(%rdi), %xmm8
	movl	%edx, %edx
	movsd	env_curve(,%rdx,8), %xmm0
	movsd	%xmm0, 720(%rdi)
	ucomisd	.LC1(%rip), %xmm8
	movsd	%xmm8, 664(%rdi)
	jb	.L1762
	movl	$1, 760(%rdi)
	movq	$0, 664(%rdi)
	jmp	.L1762
.L5919:
	testl	%eax, %eax
	jne	.L5052
	addsd	248(%rdi), %xmm3
	movl	%edx, %edx
	movsd	env_curve(,%rdx,8), %xmm10
	movsd	%xmm10, 240(%rdi)
	ucomisd	.LC1(%rip), %xmm3
	movsd	%xmm3, 184(%rdi)
	jb	.L5052
	movl	$1, 280(%rdi)
	movq	$0, 184(%rdi)
	xorpd	%xmm4, %xmm4
	jmp	.L1658
.L5917:
	testl	%eax, %eax
	jne	.L1775
	addsd	568(%rdi), %xmm7
	movl	%edx, %edx
	movsd	env_curve(,%rdx,8), %xmm8
	movsd	%xmm8, 560(%rdi)
	ucomisd	.LC1(%rip), %xmm7
	movsd	%xmm7, 504(%rdi)
	jb	.L1775
	movl	$1, 600(%rdi)
	movq	$0, 504(%rdi)
	jmp	.L1775
.L5986:
	testl	%eax, %eax
	jne	.L735
	addsd	248(%rdi), %xmm3
	movl	%edx, %edx
	movsd	env_curve(,%rdx,8), %xmm10
	movsd	%xmm10, 240(%rdi)
	ucomisd	.LC1(%rip), %xmm3
	movsd	%xmm3, 184(%rdi)
	jb	.L735
	movl	$1, 280(%rdi)
	movq	$0, 184(%rdi)
	jmp	.L735
.L5920:
	testl	%eax, %eax
	jne	.L1671
	addsd	888(%rdi), %xmm0
	movl	%edx, %edx
	movsd	env_curve(,%rdx,8), %xmm10
	movsd	%xmm10, 880(%rdi)
	ucomisd	.LC1(%rip), %xmm0
	movsd	%xmm0, 824(%rdi)
	jb	.L1671
	movl	$1, 920(%rdi)
	movq	$0, 824(%rdi)
	jmp	.L1671
.L5921:
	testl	%eax, %eax
	jne	.L1684
	addsd	728(%rdi), %xmm8
	movl	%edx, %edx
	movsd	env_curve(,%rdx,8), %xmm0
	movsd	%xmm0, 720(%rdi)
	ucomisd	.LC1(%rip), %xmm8
	movsd	%xmm8, 664(%rdi)
	jb	.L1684
	movl	$1, 760(%rdi)
	movq	$0, 664(%rdi)
	jmp	.L1684
.L6004:
	testl	%eax, %eax
	jne	.L3115
	addsd	88(%rdi), %xmm3
	movl	%edx, %edx
	movsd	env_curve(,%rdx,8), %xmm0
	movsd	%xmm0, 80(%rdi)
	ucomisd	.LC1(%rip), %xmm3
	movsd	%xmm3, 24(%rdi)
	jb	.L3115
	movl	$1, 120(%rdi)
	movq	$0, 24(%rdi)
	jmp	.L3115
.L5923:
	testl	%eax, %eax
	jne	.L1710
	addsd	88(%rdi), %xmm0
	movl	%edx, %edx
	movsd	env_curve(,%rdx,8), %xmm7
	movsd	%xmm7, 80(%rdi)
	ucomisd	.LC1(%rip), %xmm0
	movsd	%xmm0, 24(%rdi)
	jb	.L1710
	movl	$1, 120(%rdi)
	movq	$0, 24(%rdi)
	jmp	.L1710
.L5922:
	testl	%eax, %eax
	jne	.L1697
	addsd	568(%rdi), %xmm7
	movl	%edx, %edx
	movsd	env_curve(,%rdx,8), %xmm8
	movsd	%xmm8, 560(%rdi)
	ucomisd	.LC1(%rip), %xmm7
	movsd	%xmm7, 504(%rdi)
	jb	.L1697
	movl	$1, 600(%rdi)
	movq	$0, 504(%rdi)
	jmp	.L1697
.L4974:
	addsd	576(%rdi), %xmm7
	ucomisd	%xmm2, %xmm7
	movsd	%xmm7, 504(%rdi)
	jnb	.L5570
	jmp	.L1411
.L1685:
	movsd	.LC1(%rip), %xmm11
	movl	%edx, %edx
	movsd	744(%rdi), %xmm12
	movapd	%xmm11, %xmm0
	subsd	env_curve(,%rdx,8), %xmm0
	ucomisd	%xmm0, %xmm12
	movsd	%xmm0, 720(%rdi)
	jbe	.L5058
	movl	$2, 760(%rdi)
	jmp	.L1684
.L3119:
	movsd	.LC1(%rip), %xmm2
	addsd	112(%rdi), %xmm3
	movl	%edx, %edx
	movapd	%xmm2, %xmm0
	subsd	env_curve(,%rdx,8), %xmm0
	ucomisd	%xmm2, %xmm3
	movsd	%xmm3, 24(%rdi)
	movsd	%xmm0, 80(%rdi)
	jb	.L3115
.L5702:
	movl	$4, 120(%rdi)
	jmp	.L3115
.L1480:
	movsd	.LC1(%rip), %xmm11
	addsd	112(%rdi), %xmm9
	movl	%edx, %edx
	movapd	%xmm11, %xmm7
	subsd	env_curve(,%rdx,8), %xmm7
	ucomisd	%xmm11, %xmm9
	movsd	%xmm9, 24(%rdi)
	movsd	%xmm7, 80(%rdi)
	jb	.L1476
.L5575:
	movl	$4, 120(%rdi)
	jmp	.L1476
.L1714:
	movsd	.LC1(%rip), %xmm9
	addsd	112(%rdi), %xmm0
	movl	%edx, %edx
	movapd	%xmm9, %xmm7
	subsd	env_curve(,%rdx,8), %xmm7
	ucomisd	%xmm9, %xmm0
	movsd	%xmm0, 24(%rdi)
	movsd	%xmm7, 80(%rdi)
	jb	.L1710
.L5593:
	movl	$4, 120(%rdi)
	jmp	.L1710
.L739:
	movsd	.LC1(%rip), %xmm6
	addsd	272(%rdi), %xmm3
	movl	%edx, %edx
	movapd	%xmm6, %xmm10
	subsd	env_curve(,%rdx,8), %xmm10
	ucomisd	%xmm6, %xmm3
	movsd	%xmm3, 184(%rdi)
	movsd	%xmm10, 240(%rdi)
	jb	.L735
.L5518:
	movl	$4, 280(%rdi)
	jmp	.L735
.L1675:
	movsd	.LC1(%rip), %xmm11
	addsd	912(%rdi), %xmm0
	movl	%edx, %edx
	movapd	%xmm11, %xmm10
	subsd	env_curve(,%rdx,8), %xmm10
	ucomisd	%xmm11, %xmm0
	movsd	%xmm0, 824(%rdi)
	movsd	%xmm10, 880(%rdi)
	jb	.L1671
.L5590:
	movl	$4, 920(%rdi)
	jmp	.L1671
.L1698:
	movsd	.LC1(%rip), %xmm10
	movl	%edx, %edx
	movsd	584(%rdi), %xmm11
	movapd	%xmm10, %xmm8
	subsd	env_curve(,%rdx,8), %xmm8
	ucomisd	%xmm8, %xmm11
	movsd	%xmm8, 560(%rdi)
	jbe	.L5062
	movl	$2, 600(%rdi)
	jmp	.L1697
.L1688:
	movsd	.LC1(%rip), %xmm11
	addsd	752(%rdi), %xmm8
	movl	%edx, %edx
	movapd	%xmm11, %xmm0
	subsd	env_curve(,%rdx,8), %xmm0
	ucomisd	%xmm11, %xmm8
	movsd	%xmm8, 664(%rdi)
	movsd	%xmm0, 720(%rdi)
	jb	.L1684
.L5591:
	movl	$4, 760(%rdi)
	jmp	.L1684
.L1750:
	movsd	.LC1(%rip), %xmm11
	movl	%edx, %edx
	movsd	904(%rdi), %xmm12
	movapd	%xmm11, %xmm0
	subsd	env_curve(,%rdx,8), %xmm0
	ucomisd	%xmm0, %xmm12
	movsd	%xmm0, 880(%rdi)
	jbe	.L5078
	movl	$2, 920(%rdi)
	jmp	.L1749
.L1766:
	movsd	.LC1(%rip), %xmm11
	addsd	752(%rdi), %xmm8
	movl	%edx, %edx
	movapd	%xmm11, %xmm0
	subsd	env_curve(,%rdx,8), %xmm0
	ucomisd	%xmm11, %xmm8
	movsd	%xmm8, 664(%rdi)
	movsd	%xmm0, 720(%rdi)
	jb	.L1762
.L5597:
	movl	$4, 760(%rdi)
	jmp	.L1762
.L1763:
	movsd	.LC1(%rip), %xmm11
	movl	%edx, %edx
	movsd	744(%rdi), %xmm12
	movapd	%xmm11, %xmm0
	subsd	env_curve(,%rdx,8), %xmm0
	ucomisd	%xmm0, %xmm12
	movsd	%xmm0, 720(%rdi)
	jbe	.L5082
	movl	$2, 760(%rdi)
	jmp	.L1762
.L1753:
	movsd	.LC1(%rip), %xmm11
	addsd	912(%rdi), %xmm3
	movl	%edx, %edx
	movapd	%xmm11, %xmm0
	subsd	env_curve(,%rdx,8), %xmm0
	ucomisd	%xmm11, %xmm3
	movsd	%xmm3, 824(%rdi)
	movsd	%xmm0, 880(%rdi)
	jb	.L1749
.L5596:
	movl	$4, 920(%rdi)
	jmp	.L1749
.L1428:
	movsd	.LC1(%rip), %xmm4
	addsd	272(%rdi), %xmm3
	movl	%edx, %edx
	movapd	%xmm4, %xmm10
	subsd	env_curve(,%rdx,8), %xmm10
	ucomisd	%xmm4, %xmm3
	movsd	%xmm3, 184(%rdi)
	movsd	%xmm10, 240(%rdi)
	jb	.L4980
.L5571:
	movl	$4, 280(%rdi)
	xorpd	%xmm4, %xmm4
	jmp	.L1424
.L1542:
	movsd	.LC1(%rip), %xmm11
	movl	%edx, %edx
	movsd	584(%rdi), %xmm12
	movapd	%xmm11, %xmm8
	subsd	env_curve(,%rdx,8), %xmm8
	ucomisd	%xmm8, %xmm12
	movsd	%xmm8, 560(%rdi)
	jbe	.L5014
	movl	$2, 600(%rdi)
	jmp	.L1541
.L1555:
	movsd	.LC1(%rip), %xmm11
	movl	%edx, %edx
	movsd	104(%rdi), %xmm12
	movapd	%xmm11, %xmm7
	subsd	env_curve(,%rdx,8), %xmm7
	ucomisd	%xmm7, %xmm12
	movsd	%xmm7, 80(%rdi)
	jbe	.L5018
	movl	$2, 120(%rdi)
	jmp	.L1554
.L1545:
	movsd	.LC1(%rip), %xmm11
	addsd	592(%rdi), %xmm7
	movl	%edx, %edx
	movapd	%xmm11, %xmm8
	subsd	env_curve(,%rdx,8), %xmm8
	ucomisd	%xmm11, %xmm7
	movsd	%xmm7, 504(%rdi)
	movsd	%xmm8, 560(%rdi)
	jb	.L1541
.L5580:
	movl	$4, 600(%rdi)
	jmp	.L1541
.L762:
	movsd	.LC1(%rip), %xmm10
	movl	%edx, %edx
	movsd	904(%rdi), %xmm11
	movapd	%xmm10, %xmm0
	subsd	env_curve(,%rdx,8), %xmm0
	ucomisd	%xmm0, %xmm11
	movsd	%xmm0, 880(%rdi)
	jbe	.L4774
	movl	$2, 920(%rdi)
	jmp	.L761
.L752:
	movsd	.LC1(%rip), %xmm11
	addsd	112(%rdi), %xmm0
	movl	%edx, %edx
	movapd	%xmm11, %xmm6
	subsd	env_curve(,%rdx,8), %xmm6
	ucomisd	%xmm11, %xmm0
	movsd	%xmm0, 24(%rdi)
	movsd	%xmm6, 80(%rdi)
	jb	.L748
.L5519:
	movl	$4, 120(%rdi)
	jmp	.L748
.L1662:
	movsd	.LC1(%rip), %xmm4
	addsd	272(%rdi), %xmm3
	movl	%edx, %edx
	movapd	%xmm4, %xmm10
	subsd	env_curve(,%rdx,8), %xmm10
	ucomisd	%xmm4, %xmm3
	movsd	%xmm3, 184(%rdi)
	movsd	%xmm10, 240(%rdi)
	jb	.L5052
.L5589:
	movl	$4, 280(%rdi)
	xorpd	%xmm4, %xmm4
	jmp	.L1658
.L1776:
	movsd	.LC1(%rip), %xmm11
	movl	%edx, %edx
	movsd	584(%rdi), %xmm12
	movapd	%xmm11, %xmm8
	subsd	env_curve(,%rdx,8), %xmm8
	ucomisd	%xmm8, %xmm12
	movsd	%xmm8, 560(%rdi)
	jbe	.L5086
	movl	$2, 600(%rdi)
	jmp	.L1775
.L1789:
	movsd	.LC1(%rip), %xmm11
	movl	%edx, %edx
	movsd	424(%rdi), %xmm12
	movapd	%xmm11, %xmm7
	subsd	env_curve(,%rdx,8), %xmm7
	ucomisd	%xmm7, %xmm12
	movsd	%xmm7, 400(%rdi)
	jbe	.L5090
	movl	$2, 440(%rdi)
	jmp	.L1788
.L749:
	movsd	.LC1(%rip), %xmm11
	movl	%edx, %edx
	movsd	104(%rdi), %xmm12
	movapd	%xmm11, %xmm6
	subsd	env_curve(,%rdx,8), %xmm6
	ucomisd	%xmm6, %xmm12
	movsd	%xmm6, 80(%rdi)
	jbe	.L4770
	movl	$2, 120(%rdi)
	jmp	.L748
.L1633:
	movsd	.LC1(%rip), %xmm9
	movl	%edx, %edx
	movsd	104(%rdi), %xmm11
	movapd	%xmm9, %xmm7
	subsd	env_curve(,%rdx,8), %xmm7
	ucomisd	%xmm7, %xmm11
	movsd	%xmm7, 80(%rdi)
	jbe	.L5042
	movl	$2, 120(%rdi)
	jmp	.L1632
.L1425:
	movsd	.LC1(%rip), %xmm4
	movl	%edx, %edx
	movsd	264(%rdi), %xmm11
	movapd	%xmm4, %xmm10
	subsd	env_curve(,%rdx,8), %xmm10
	ucomisd	%xmm10, %xmm11
	movsd	%xmm10, 240(%rdi)
	jbe	.L4978
	movl	$2, 280(%rdi)
	xorpd	%xmm4, %xmm4
	jmp	.L1424
.L1672:
	movsd	.LC1(%rip), %xmm11
	movl	%edx, %edx
	movsd	904(%rdi), %xmm12
	movapd	%xmm11, %xmm10
	subsd	env_curve(,%rdx,8), %xmm10
	ucomisd	%xmm10, %xmm12
	movsd	%xmm10, 880(%rdi)
	jbe	.L5054
	movl	$2, 920(%rdi)
	jmp	.L1671
.L1360:
	movsd	.LC1(%rip), %xmm6
	movl	%edx, %edx
	movsd	264(%rdi), %xmm12
	movapd	%xmm6, %xmm10
	subsd	env_curve(,%rdx,8), %xmm10
	ucomisd	%xmm10, %xmm12
	movsd	%xmm10, 240(%rdi)
	jbe	.L4958
	movl	$2, 280(%rdi)
	jmp	.L1359
.L1584:
	movsd	.LC1(%rip), %xmm4
	addsd	272(%rdi), %xmm3
	movl	%edx, %edx
	movapd	%xmm4, %xmm10
	subsd	env_curve(,%rdx,8), %xmm10
	ucomisd	%xmm4, %xmm3
	movsd	%xmm3, 184(%rdi)
	movsd	%xmm10, 240(%rdi)
	jb	.L5028
.L5583:
	movl	$4, 280(%rdi)
	xorpd	%xmm4, %xmm4
	jmp	.L1580
.L1636:
	movsd	.LC1(%rip), %xmm9
	addsd	112(%rdi), %xmm0
	movl	%edx, %edx
	movapd	%xmm9, %xmm7
	subsd	env_curve(,%rdx,8), %xmm7
	ucomisd	%xmm9, %xmm0
	movsd	%xmm0, 24(%rdi)
	movsd	%xmm7, 80(%rdi)
	jb	.L1632
.L5587:
	movl	$4, 120(%rdi)
	jmp	.L1632
.L1529:
	movsd	.LC1(%rip), %xmm11
	movl	%edx, %edx
	movsd	744(%rdi), %xmm12
	movapd	%xmm11, %xmm0
	subsd	env_curve(,%rdx,8), %xmm0
	ucomisd	%xmm0, %xmm12
	movsd	%xmm0, 720(%rdi)
	jbe	.L5010
	movl	$2, 760(%rdi)
	jmp	.L1528
.L1519:
	movsd	.LC1(%rip), %xmm11
	addsd	912(%rdi), %xmm3
	movl	%edx, %edx
	movapd	%xmm11, %xmm0
	subsd	env_curve(,%rdx,8), %xmm0
	ucomisd	%xmm11, %xmm3
	movsd	%xmm3, 824(%rdi)
	movsd	%xmm0, 880(%rdi)
	jb	.L1515
.L5578:
	movl	$4, 920(%rdi)
	jmp	.L1515
.L1506:
	movsd	.LC1(%rip), %xmm4
	addsd	272(%rdi), %xmm3
	movl	%edx, %edx
	movapd	%xmm4, %xmm10
	subsd	env_curve(,%rdx,8), %xmm10
	ucomisd	%xmm4, %xmm3
	movsd	%xmm3, 184(%rdi)
	movsd	%xmm10, 240(%rdi)
	jb	.L5004
.L5577:
	movl	$4, 280(%rdi)
	xorpd	%xmm4, %xmm4
	jmp	.L1502
.L1594:
	movsd	.LC1(%rip), %xmm11
	movl	%edx, %edx
	movsd	904(%rdi), %xmm12
	movapd	%xmm11, %xmm0
	subsd	env_curve(,%rdx,8), %xmm0
	ucomisd	%xmm0, %xmm12
	movsd	%xmm0, 880(%rdi)
	jbe	.L5030
	movl	$2, 920(%rdi)
	jmp	.L1593
.L1854:
	movsd	.LC1(%rip), %xmm10
	movl	%edx, %edx
	movsd	584(%rdi), %xmm11
	movapd	%xmm10, %xmm8
	subsd	env_curve(,%rdx,8), %xmm8
	ucomisd	%xmm8, %xmm11
	movsd	%xmm8, 560(%rdi)
	jbe	.L5110
	movl	$2, 600(%rdi)
	jmp	.L1853
.L1532:
	movsd	.LC1(%rip), %xmm11
	addsd	752(%rdi), %xmm8
	movl	%edx, %edx
	movapd	%xmm11, %xmm0
	subsd	env_curve(,%rdx,8), %xmm0
	ucomisd	%xmm11, %xmm8
	movsd	%xmm8, 664(%rdi)
	movsd	%xmm0, 720(%rdi)
	jb	.L1528
.L5579:
	movl	$4, 760(%rdi)
	jmp	.L1528
.L1779:
	movsd	.LC1(%rip), %xmm11
	addsd	592(%rdi), %xmm7
	movl	%edx, %edx
	movapd	%xmm11, %xmm8
	subsd	env_curve(,%rdx,8), %xmm8
	ucomisd	%xmm11, %xmm7
	movsd	%xmm7, 504(%rdi)
	movsd	%xmm8, 560(%rdi)
	jb	.L1775
.L5598:
	movl	$4, 600(%rdi)
	jmp	.L1775
.L1581:
	movsd	.LC1(%rip), %xmm4
	movl	%edx, %edx
	movsd	264(%rdi), %xmm11
	movapd	%xmm4, %xmm10
	subsd	env_curve(,%rdx,8), %xmm10
	ucomisd	%xmm10, %xmm11
	movsd	%xmm10, 240(%rdi)
	jbe	.L5026
	movl	$2, 280(%rdi)
	xorpd	%xmm4, %xmm4
	jmp	.L1580
.L1659:
	movsd	.LC1(%rip), %xmm4
	movl	%edx, %edx
	movsd	264(%rdi), %xmm11
	movapd	%xmm4, %xmm10
	subsd	env_curve(,%rdx,8), %xmm10
	ucomisd	%xmm10, %xmm11
	movsd	%xmm10, 240(%rdi)
	jbe	.L5050
	movl	$2, 280(%rdi)
	xorpd	%xmm4, %xmm4
	jmp	.L1658
.L1620:
	movsd	.LC1(%rip), %xmm11
	movl	%edx, %edx
	movsd	584(%rdi), %xmm12
	movapd	%xmm11, %xmm8
	subsd	env_curve(,%rdx,8), %xmm8
	ucomisd	%xmm8, %xmm12
	movsd	%xmm8, 560(%rdi)
	jbe	.L5038
	movl	$2, 600(%rdi)
	jmp	.L1619
.L1740:
	movsd	.LC1(%rip), %xmm4
	addsd	272(%rdi), %xmm3
	movl	%edx, %edx
	movapd	%xmm4, %xmm10
	subsd	env_curve(,%rdx,8), %xmm10
	ucomisd	%xmm4, %xmm3
	movsd	%xmm3, 184(%rdi)
	movsd	%xmm10, 240(%rdi)
	jb	.L5076
.L5595:
	movl	$4, 280(%rdi)
	xorpd	%xmm4, %xmm4
	jmp	.L1736
.L1597:
	movsd	.LC1(%rip), %xmm11
	addsd	912(%rdi), %xmm3
	movl	%edx, %edx
	movapd	%xmm11, %xmm0
	subsd	env_curve(,%rdx,8), %xmm0
	ucomisd	%xmm11, %xmm3
	movsd	%xmm3, 824(%rdi)
	movsd	%xmm0, 880(%rdi)
	jb	.L1593
.L5584:
	movl	$4, 920(%rdi)
	jmp	.L1593
.L1503:
	movsd	.LC1(%rip), %xmm4
	movl	%edx, %edx
	movsd	264(%rdi), %xmm11
	movapd	%xmm4, %xmm10
	subsd	env_curve(,%rdx,8), %xmm10
	ucomisd	%xmm10, %xmm11
	movsd	%xmm10, 240(%rdi)
	jbe	.L5002
	movl	$2, 280(%rdi)
	xorpd	%xmm4, %xmm4
	jmp	.L1502
.L1607:
	movsd	.LC1(%rip), %xmm11
	movl	%edx, %edx
	movsd	744(%rdi), %xmm12
	movapd	%xmm11, %xmm0
	subsd	env_curve(,%rdx,8), %xmm0
	ucomisd	%xmm0, %xmm12
	movsd	%xmm0, 720(%rdi)
	jbe	.L5034
	movl	$2, 760(%rdi)
	jmp	.L1606
.L1623:
	movsd	.LC1(%rip), %xmm11
	addsd	592(%rdi), %xmm7
	movl	%edx, %edx
	movapd	%xmm11, %xmm8
	subsd	env_curve(,%rdx,8), %xmm8
	ucomisd	%xmm11, %xmm7
	movsd	%xmm7, 504(%rdi)
	movsd	%xmm8, 560(%rdi)
	jb	.L1619
.L5586:
	movl	$4, 600(%rdi)
	jmp	.L1619
.L1610:
	movsd	.LC1(%rip), %xmm11
	addsd	752(%rdi), %xmm8
	movl	%edx, %edx
	movapd	%xmm11, %xmm0
	subsd	env_curve(,%rdx,8), %xmm0
	ucomisd	%xmm11, %xmm8
	movsd	%xmm8, 664(%rdi)
	movsd	%xmm0, 720(%rdi)
	jb	.L1606
.L5585:
	movl	$4, 760(%rdi)
	jmp	.L1606
.L1844:
	movsd	.LC1(%rip), %xmm11
	addsd	752(%rdi), %xmm8
	movl	%edx, %edx
	movapd	%xmm11, %xmm0
	subsd	env_curve(,%rdx,8), %xmm0
	ucomisd	%xmm11, %xmm8
	movsd	%xmm8, 664(%rdi)
	movsd	%xmm0, 720(%rdi)
	jb	.L1840
.L5603:
	movl	$4, 760(%rdi)
	jmp	.L1840
.L1828:
	movsd	.LC1(%rip), %xmm11
	movl	%edx, %edx
	movsd	904(%rdi), %xmm12
	movapd	%xmm11, %xmm10
	subsd	env_curve(,%rdx,8), %xmm10
	ucomisd	%xmm10, %xmm12
	movsd	%xmm10, 880(%rdi)
	jbe	.L5102
	movl	$2, 920(%rdi)
	jmp	.L1827
.L1841:
	movsd	.LC1(%rip), %xmm11
	movl	%edx, %edx
	movsd	744(%rdi), %xmm12
	movapd	%xmm11, %xmm0
	subsd	env_curve(,%rdx,8), %xmm0
	ucomisd	%xmm0, %xmm12
	movsd	%xmm0, 720(%rdi)
	jbe	.L5106
	movl	$2, 760(%rdi)
	jmp	.L1840
.L931:
	movsd	.LC1(%rip), %xmm9
	movl	%edx, %edx
	movsd	904(%rdi), %xmm11
	movapd	%xmm9, %xmm5
	subsd	env_curve(,%rdx,8), %xmm5
	ucomisd	%xmm5, %xmm11
	movsd	%xmm5, 880(%rdi)
	jbe	.L4826
	movl	$2, 920(%rdi)
	jmp	.L930
.L1932:
	movsd	.LC1(%rip), %xmm10
	movl	%edx, %edx
	movsd	584(%rdi), %xmm11
	movapd	%xmm10, %xmm8
	subsd	env_curve(,%rdx,8), %xmm8
	ucomisd	%xmm8, %xmm11
	movsd	%xmm8, 560(%rdi)
	jbe	.L5134
	movl	$2, 600(%rdi)
	jmp	.L1931
.L2102:
	movsd	.LC1(%rip), %xmm9
	addsd	272(%rdi), %xmm8
	movl	%edx, %edx
	movapd	%xmm9, %xmm6
	subsd	env_curve(,%rdx,8), %xmm6
	ucomisd	%xmm9, %xmm8
	movsd	%xmm8, 184(%rdi)
	movsd	%xmm6, 240(%rdi)
	jb	.L2098
.L5623:
	movl	$4, 280(%rdi)
	jmp	.L2098
.L1818:
	movsd	.LC1(%rip), %xmm4
	addsd	272(%rdi), %xmm3
	movl	%edx, %edx
	movapd	%xmm4, %xmm10
	subsd	env_curve(,%rdx,8), %xmm10
	ucomisd	%xmm4, %xmm3
	movsd	%xmm3, 184(%rdi)
	movsd	%xmm10, 240(%rdi)
	jb	.L5100
.L5601:
	movl	$4, 280(%rdi)
	xorpd	%xmm4, %xmm4
	jmp	.L1814
.L1896:
	movsd	.LC1(%rip), %xmm4
	addsd	272(%rdi), %xmm3
	movl	%edx, %edx
	movapd	%xmm4, %xmm9
	subsd	env_curve(,%rdx,8), %xmm9
	ucomisd	%xmm4, %xmm3
	movsd	%xmm3, 184(%rdi)
	movsd	%xmm9, 240(%rdi)
	jb	.L5124
.L5607:
	movl	$4, 280(%rdi)
	xorpd	%xmm4, %xmm4
	jmp	.L1892
.L1906:
	movsd	.LC1(%rip), %xmm3
	movl	%edx, %edx
	movsd	904(%rdi), %xmm11
	movapd	%xmm3, %xmm10
	subsd	env_curve(,%rdx,8), %xmm10
	ucomisd	%xmm10, %xmm11
	movsd	%xmm10, 880(%rdi)
	jbe	.L5126
	movl	$2, 920(%rdi)
	jmp	.L1905
.L1893:
	movsd	.LC1(%rip), %xmm4
	movl	%edx, %edx
	movsd	264(%rdi), %xmm10
	movapd	%xmm4, %xmm9
	subsd	env_curve(,%rdx,8), %xmm9
	ucomisd	%xmm9, %xmm10
	movsd	%xmm9, 240(%rdi)
	jbe	.L5122
	movl	$2, 280(%rdi)
	xorpd	%xmm4, %xmm4
	jmp	.L1892
.L908:
	movsd	.LC1(%rip), %xmm11
	addsd	592(%rdi), %xmm0
	movl	%edx, %edx
	movapd	%xmm11, %xmm5
	subsd	env_curve(,%rdx,8), %xmm5
	ucomisd	%xmm11, %xmm0
	movsd	%xmm0, 504(%rdi)
	movsd	%xmm5, 560(%rdi)
	jb	.L904
.L5531:
	movl	$4, 600(%rdi)
	jmp	.L904
.L879:
	movsd	.LC1(%rip), %xmm4
	movl	%edx, %edx
	movsd	264(%rdi), %xmm10
	movapd	%xmm4, %xmm11
	subsd	env_curve(,%rdx,8), %xmm11
	ucomisd	%xmm11, %xmm10
	movsd	%xmm11, 240(%rdi)
	jbe	.L4810
	movl	$2, 280(%rdi)
	xorpd	%xmm4, %xmm4
	jmp	.L878
.L892:
	movsd	.LC1(%rip), %xmm3
	movl	%edx, %edx
	movsd	104(%rdi), %xmm12
	movapd	%xmm3, %xmm10
	subsd	env_curve(,%rdx,8), %xmm10
	ucomisd	%xmm10, %xmm12
	movsd	%xmm10, 80(%rdi)
	jbe	.L4814
	movl	$2, 120(%rdi)
	jmp	.L891
.L905:
	movsd	.LC1(%rip), %xmm11
	movl	%edx, %edx
	movsd	584(%rdi), %xmm12
	movapd	%xmm11, %xmm5
	subsd	env_curve(,%rdx,8), %xmm5
	ucomisd	%xmm5, %xmm12
	movsd	%xmm5, 560(%rdi)
	jbe	.L4818
	movl	$2, 600(%rdi)
	jmp	.L904
.L2034:
	movsd	.LC1(%rip), %xmm2
	movl	%edx, %edx
	movsd	104(%rdi), %xmm4
	movapd	%xmm2, %xmm0
	subsd	env_curve(,%rdx,8), %xmm0
	ucomisd	%xmm0, %xmm4
	movsd	%xmm0, 80(%rdi)
	jbe	.L5166
	movl	$2, 120(%rdi)
	jmp	.L2033
.L1969:
	movsd	.LC1(%rip), %xmm4
	movl	%edx, %edx
	movsd	904(%rdi), %xmm11
	movapd	%xmm4, %xmm10
	subsd	env_curve(,%rdx,8), %xmm10
	ucomisd	%xmm10, %xmm11
	movsd	%xmm10, 880(%rdi)
	jbe	.L5146
	movl	$2, 920(%rdi)
	xorpd	%xmm4, %xmm4
	jmp	.L1968
.L1386:
	movsd	.LC1(%rip), %xmm10
	movl	%edx, %edx
	movsd	904(%rdi), %xmm11
	movapd	%xmm10, %xmm0
	subsd	env_curve(,%rdx,8), %xmm0
	ucomisd	%xmm0, %xmm11
	movsd	%xmm0, 880(%rdi)
	jbe	.L4966
	movl	$2, 920(%rdi)
	jmp	.L1385
.L1012:
	movsd	.LC1(%rip), %xmm9
	addsd	912(%rdi), %xmm6
	movl	%edx, %edx
	movapd	%xmm9, %xmm5
	subsd	env_curve(,%rdx,8), %xmm5
	ucomisd	%xmm9, %xmm6
	movsd	%xmm6, 824(%rdi)
	movsd	%xmm5, 880(%rdi)
	jb	.L1008
.L5539:
	movl	$4, 920(%rdi)
	jmp	.L1008
.L1956:
	movsd	.LC1(%rip), %xmm2
	movl	%edx, %edx
	movsd	104(%rdi), %xmm4
	movapd	%xmm2, %xmm0
	subsd	env_curve(,%rdx,8), %xmm0
	ucomisd	%xmm0, %xmm4
	movsd	%xmm0, 80(%rdi)
	jbe	.L5142
	movl	$2, 120(%rdi)
	jmp	.L1955
.L1946:
	movsd	.LC1(%rip), %xmm10
	addsd	432(%rdi), %xmm8
	movl	%edx, %edx
	movapd	%xmm10, %xmm7
	subsd	env_curve(,%rdx,8), %xmm7
	ucomisd	%xmm10, %xmm8
	movsd	%xmm8, 344(%rdi)
	movsd	%xmm7, 400(%rdi)
	jb	.L1942
.L5611:
	movl	$4, 440(%rdi)
	jmp	.L1942
.L866:
	movsd	.LC1(%rip), %xmm2
	movl	%edx, %edx
	movsd	584(%rdi), %xmm4
	movapd	%xmm2, %xmm1
	subsd	env_curve(,%rdx,8), %xmm1
	ucomisd	%xmm1, %xmm4
	movsd	%xmm1, 560(%rdi)
	jbe	.L4806
	movl	$2, 600(%rdi)
	jmp	.L865
.L856:
	movsd	.LC1(%rip), %xmm8
	addsd	752(%rdi), %xmm6
	movl	%edx, %edx
	movapd	%xmm8, %xmm5
	subsd	env_curve(,%rdx,8), %xmm5
	ucomisd	%xmm8, %xmm6
	movsd	%xmm6, 664(%rdi)
	movsd	%xmm5, 720(%rdi)
	jb	.L852
.L5527:
	movl	$4, 760(%rdi)
	jmp	.L852
.L853:
	movsd	.LC1(%rip), %xmm8
	movl	%edx, %edx
	movsd	744(%rdi), %xmm10
	movapd	%xmm8, %xmm5
	subsd	env_curve(,%rdx,8), %xmm5
	ucomisd	%xmm5, %xmm10
	movsd	%xmm5, 720(%rdi)
	jbe	.L4802
	movl	$2, 760(%rdi)
	jmp	.L852
.L2112:
	movsd	.LC1(%rip), %xmm2
	movl	%edx, %edx
	movsd	104(%rdi), %xmm4
	movapd	%xmm2, %xmm0
	subsd	env_curve(,%rdx,8), %xmm0
	ucomisd	%xmm0, %xmm4
	movsd	%xmm0, 80(%rdi)
	jbe	.L5190
	movl	$2, 120(%rdi)
	jmp	.L2111
.L2099:
	movsd	.LC1(%rip), %xmm9
	movl	%edx, %edx
	movsd	264(%rdi), %xmm10
	movapd	%xmm9, %xmm6
	subsd	env_curve(,%rdx,8), %xmm6
	ucomisd	%xmm6, %xmm10
	movsd	%xmm6, 240(%rdi)
	jbe	.L5186
	movl	$2, 280(%rdi)
	jmp	.L2098
.L2086:
	movsd	.LC1(%rip), %xmm10
	movl	%edx, %edx
	movsd	424(%rdi), %xmm11
	movapd	%xmm10, %xmm8
	subsd	env_curve(,%rdx,8), %xmm8
	ucomisd	%xmm8, %xmm11
	movsd	%xmm8, 400(%rdi)
	jbe	.L5182
	movl	$2, 440(%rdi)
	jmp	.L2085
.L2089:
	movsd	.LC1(%rip), %xmm10
	addsd	432(%rdi), %xmm9
	movl	%edx, %edx
	movapd	%xmm10, %xmm8
	subsd	env_curve(,%rdx,8), %xmm8
	ucomisd	%xmm10, %xmm9
	movsd	%xmm9, 344(%rdi)
	movsd	%xmm8, 400(%rdi)
	jb	.L2085
.L5622:
	movl	$4, 440(%rdi)
	jmp	.L2085
.L1152:
	movsd	.LC1(%rip), %xmm11
